
code.elf:     file format elf32-littleriscv


Disassembly of section .text:

00001000 <_start>:
    1000:	0100006f          	j	1010 <_init>

00001004 <_end>:
    1004:	0000006f          	j	1004 <_end>

00001008 <_call_main>:
    1008:	70d000ef          	jal	ra,1f14 <main>
    100c:	ff9ff06f          	j	1004 <_end>

00001010 <_init>:
    1010:	00000517          	auipc	a0,0x0
    1014:	09850513          	addi	a0,a0,152 # 10a8 <trap_vector>
    1018:	30551073          	csrw	mtvec,a0
    101c:	80020137          	lui	sp,0x80020
    1020:	19d000ef          	jal	ra,19bc <_load>
    1024:	00000093          	li	ra,0
    1028:	00000113          	li	sp,0
    102c:	00000193          	li	gp,0
    1030:	00000213          	li	tp,0
    1034:	00000293          	li	t0,0
    1038:	00000313          	li	t1,0
    103c:	00000393          	li	t2,0
    1040:	00000413          	li	s0,0
    1044:	00000493          	li	s1,0
    1048:	00000513          	li	a0,0
    104c:	00000593          	li	a1,0
    1050:	00000613          	li	a2,0
    1054:	00000693          	li	a3,0
    1058:	00000713          	li	a4,0
    105c:	00000793          	li	a5,0
    1060:	00000813          	li	a6,0
    1064:	00000893          	li	a7,0
    1068:	00000913          	li	s2,0
    106c:	00000993          	li	s3,0
    1070:	00000a13          	li	s4,0
    1074:	00000a93          	li	s5,0
    1078:	00000b13          	li	s6,0
    107c:	00000b93          	li	s7,0
    1080:	00000c13          	li	s8,0
    1084:	00000c93          	li	s9,0
    1088:	00000d13          	li	s10,0
    108c:	00000d93          	li	s11,0
    1090:	00000e13          	li	t3,0
    1094:	00000e93          	li	t4,0
    1098:	00000f13          	li	t5,0
    109c:	00000f93          	li	t6,0
    10a0:	80020137          	lui	sp,0x80020
    10a4:	f65ff06f          	j	1008 <_call_main>

000010a8 <trap_vector>:
    10a8:	f8010113          	addi	sp,sp,-128 # 8001ff80 <stack_top+0xffffff80>
    10ac:	00012023          	sw	zero,0(sp)
    10b0:	00112223          	sw	ra,4(sp)
    10b4:	00212423          	sw	sp,8(sp)
    10b8:	00312623          	sw	gp,12(sp)
    10bc:	00412823          	sw	tp,16(sp)
    10c0:	00512a23          	sw	t0,20(sp)
    10c4:	00612c23          	sw	t1,24(sp)
    10c8:	00712e23          	sw	t2,28(sp)
    10cc:	02812023          	sw	s0,32(sp)
    10d0:	02912223          	sw	s1,36(sp)
    10d4:	02a12423          	sw	a0,40(sp)
    10d8:	02b12623          	sw	a1,44(sp)
    10dc:	02c12823          	sw	a2,48(sp)
    10e0:	02d12a23          	sw	a3,52(sp)
    10e4:	02e12c23          	sw	a4,56(sp)
    10e8:	02f12e23          	sw	a5,60(sp)
    10ec:	05012023          	sw	a6,64(sp)
    10f0:	05112223          	sw	a7,68(sp)
    10f4:	05212423          	sw	s2,72(sp)
    10f8:	05312623          	sw	s3,76(sp)
    10fc:	05412823          	sw	s4,80(sp)
    1100:	05512a23          	sw	s5,84(sp)
    1104:	05612c23          	sw	s6,88(sp)
    1108:	05712e23          	sw	s7,92(sp)
    110c:	07812023          	sw	s8,96(sp)
    1110:	07912223          	sw	s9,100(sp)
    1114:	07a12423          	sw	s10,104(sp)
    1118:	07b12623          	sw	s11,108(sp)
    111c:	07c12823          	sw	t3,112(sp)
    1120:	07d12a23          	sw	t4,116(sp)
    1124:	07e12c23          	sw	t5,120(sp)
    1128:	07f12e23          	sw	t6,124(sp)
    112c:	7ffff517          	auipc	a0,0x7ffff
    1130:	ed450513          	addi	a0,a0,-300 # 80000000 <__data_start>
    1134:	00050293          	mv	t0,a0
    1138:	40002337          	lui	t1,0x40002
    113c:	0002c503          	lbu	a0,0(t0)
    1140:	00128293          	addi	t0,t0,1
    1144:	00050663          	beqz	a0,1150 <trap_vector+0xa8>
    1148:	00a32023          	sw	a0,0(t1) # 40002000 <__rodata_end+0x40000074>
    114c:	ff1ff06f          	j	113c <trap_vector+0x94>
    1150:	7ffff517          	auipc	a0,0x7ffff
    1154:	ed050513          	addi	a0,a0,-304 # 80000020 <__data_start+0x20>
    1158:	00050293          	mv	t0,a0
    115c:	40002337          	lui	t1,0x40002
    1160:	0002c503          	lbu	a0,0(t0)
    1164:	00128293          	addi	t0,t0,1
    1168:	00050663          	beqz	a0,1174 <trap_vector+0xcc>
    116c:	00a32023          	sw	a0,0(t1) # 40002000 <__rodata_end+0x40000074>
    1170:	ff1ff06f          	j	1160 <trap_vector+0xb8>
    1174:	34202573          	csrr	a0,mcause
    1178:	7ffff297          	auipc	t0,0x7ffff
    117c:	eb828293          	addi	t0,t0,-328 # 80000030 <__data_start+0x30>
    1180:	0012a023          	sw	ra,0(t0)
    1184:	00a2a223          	sw	a0,4(t0)
    1188:	00b2a423          	sw	a1,8(t0)
    118c:	00050513          	mv	a0,a0
    1190:	00050593          	mv	a1,a0
    1194:	01855513          	srli	a0,a0,0x18
    1198:	00050513          	mv	a0,a0
    119c:	00050313          	mv	t1,a0
    11a0:	00435513          	srli	a0,t1,0x4
    11a4:	00f57513          	andi	a0,a0,15
    11a8:	7ffff297          	auipc	t0,0x7ffff
    11ac:	e9828293          	addi	t0,t0,-360 # 80000040 <__data_start+0x40>
    11b0:	00550533          	add	a0,a0,t0
    11b4:	00054503          	lbu	a0,0(a0)
    11b8:	400022b7          	lui	t0,0x40002
    11bc:	00a2a023          	sw	a0,0(t0) # 40002000 <__rodata_end+0x40000074>
    11c0:	00f37513          	andi	a0,t1,15
    11c4:	7ffff297          	auipc	t0,0x7ffff
    11c8:	e7c28293          	addi	t0,t0,-388 # 80000040 <__data_start+0x40>
    11cc:	00550533          	add	a0,a0,t0
    11d0:	00054503          	lbu	a0,0(a0)
    11d4:	400022b7          	lui	t0,0x40002
    11d8:	00a2a023          	sw	a0,0(t0) # 40002000 <__rodata_end+0x40000074>
    11dc:	00058513          	mv	a0,a1
    11e0:	01055513          	srli	a0,a0,0x10
    11e4:	00050513          	mv	a0,a0
    11e8:	00050313          	mv	t1,a0
    11ec:	00435513          	srli	a0,t1,0x4
    11f0:	00f57513          	andi	a0,a0,15
    11f4:	7ffff297          	auipc	t0,0x7ffff
    11f8:	e6c28293          	addi	t0,t0,-404 # 80000060 <__data_start+0x60>
    11fc:	00550533          	add	a0,a0,t0
    1200:	00054503          	lbu	a0,0(a0)
    1204:	400022b7          	lui	t0,0x40002
    1208:	00a2a023          	sw	a0,0(t0) # 40002000 <__rodata_end+0x40000074>
    120c:	00f37513          	andi	a0,t1,15
    1210:	7ffff297          	auipc	t0,0x7ffff
    1214:	e5028293          	addi	t0,t0,-432 # 80000060 <__data_start+0x60>
    1218:	00550533          	add	a0,a0,t0
    121c:	00054503          	lbu	a0,0(a0)
    1220:	400022b7          	lui	t0,0x40002
    1224:	00a2a023          	sw	a0,0(t0) # 40002000 <__rodata_end+0x40000074>
    1228:	00058513          	mv	a0,a1
    122c:	00855513          	srli	a0,a0,0x8
    1230:	00050513          	mv	a0,a0
    1234:	00050313          	mv	t1,a0
    1238:	00435513          	srli	a0,t1,0x4
    123c:	00f57513          	andi	a0,a0,15
    1240:	7ffff297          	auipc	t0,0x7ffff
    1244:	e4028293          	addi	t0,t0,-448 # 80000080 <__data_start+0x80>
    1248:	00550533          	add	a0,a0,t0
    124c:	00054503          	lbu	a0,0(a0)
    1250:	400022b7          	lui	t0,0x40002
    1254:	00a2a023          	sw	a0,0(t0) # 40002000 <__rodata_end+0x40000074>
    1258:	00f37513          	andi	a0,t1,15
    125c:	7ffff297          	auipc	t0,0x7ffff
    1260:	e2428293          	addi	t0,t0,-476 # 80000080 <__data_start+0x80>
    1264:	00550533          	add	a0,a0,t0
    1268:	00054503          	lbu	a0,0(a0)
    126c:	400022b7          	lui	t0,0x40002
    1270:	00a2a023          	sw	a0,0(t0) # 40002000 <__rodata_end+0x40000074>
    1274:	00058513          	mv	a0,a1
    1278:	00050513          	mv	a0,a0
    127c:	00050313          	mv	t1,a0
    1280:	00435513          	srli	a0,t1,0x4
    1284:	00f57513          	andi	a0,a0,15
    1288:	7ffff297          	auipc	t0,0x7ffff
    128c:	e1828293          	addi	t0,t0,-488 # 800000a0 <__data_start+0xa0>
    1290:	00550533          	add	a0,a0,t0
    1294:	00054503          	lbu	a0,0(a0)
    1298:	400022b7          	lui	t0,0x40002
    129c:	00a2a023          	sw	a0,0(t0) # 40002000 <__rodata_end+0x40000074>
    12a0:	00f37513          	andi	a0,t1,15
    12a4:	7ffff297          	auipc	t0,0x7ffff
    12a8:	dfc28293          	addi	t0,t0,-516 # 800000a0 <__data_start+0xa0>
    12ac:	00550533          	add	a0,a0,t0
    12b0:	00054503          	lbu	a0,0(a0)
    12b4:	400022b7          	lui	t0,0x40002
    12b8:	00a2a023          	sw	a0,0(t0) # 40002000 <__rodata_end+0x40000074>
    12bc:	7ffff297          	auipc	t0,0x7ffff
    12c0:	de428293          	addi	t0,t0,-540 # 800000a0 <__data_start+0xa0>
    12c4:	0002a083          	lw	ra,0(t0)
    12c8:	0042a503          	lw	a0,4(t0)
    12cc:	0082a583          	lw	a1,8(t0)
    12d0:	7ffff517          	auipc	a0,0x7ffff
    12d4:	df050513          	addi	a0,a0,-528 # 800000c0 <__data_start+0xc0>
    12d8:	00050293          	mv	t0,a0
    12dc:	40002337          	lui	t1,0x40002
    12e0:	0002c503          	lbu	a0,0(t0)
    12e4:	00128293          	addi	t0,t0,1
    12e8:	00050663          	beqz	a0,12f4 <trap_vector+0x24c>
    12ec:	00a32023          	sw	a0,0(t1) # 40002000 <__rodata_end+0x40000074>
    12f0:	ff1ff06f          	j	12e0 <trap_vector+0x238>
    12f4:	34102573          	csrr	a0,mepc
    12f8:	7ffff297          	auipc	t0,0x7ffff
    12fc:	dd828293          	addi	t0,t0,-552 # 800000d0 <__data_start+0xd0>
    1300:	0012a023          	sw	ra,0(t0)
    1304:	00a2a223          	sw	a0,4(t0)
    1308:	00b2a423          	sw	a1,8(t0)
    130c:	00050513          	mv	a0,a0
    1310:	00050593          	mv	a1,a0
    1314:	01855513          	srli	a0,a0,0x18
    1318:	00050513          	mv	a0,a0
    131c:	00050313          	mv	t1,a0
    1320:	00435513          	srli	a0,t1,0x4
    1324:	00f57513          	andi	a0,a0,15
    1328:	7ffff297          	auipc	t0,0x7ffff
    132c:	db828293          	addi	t0,t0,-584 # 800000e0 <__data_start+0xe0>
    1330:	00550533          	add	a0,a0,t0
    1334:	00054503          	lbu	a0,0(a0)
    1338:	400022b7          	lui	t0,0x40002
    133c:	00a2a023          	sw	a0,0(t0) # 40002000 <__rodata_end+0x40000074>
    1340:	00f37513          	andi	a0,t1,15
    1344:	7ffff297          	auipc	t0,0x7ffff
    1348:	d9c28293          	addi	t0,t0,-612 # 800000e0 <__data_start+0xe0>
    134c:	00550533          	add	a0,a0,t0
    1350:	00054503          	lbu	a0,0(a0)
    1354:	400022b7          	lui	t0,0x40002
    1358:	00a2a023          	sw	a0,0(t0) # 40002000 <__rodata_end+0x40000074>
    135c:	00058513          	mv	a0,a1
    1360:	01055513          	srli	a0,a0,0x10
    1364:	00050513          	mv	a0,a0
    1368:	00050313          	mv	t1,a0
    136c:	00435513          	srli	a0,t1,0x4
    1370:	00f57513          	andi	a0,a0,15
    1374:	7ffff297          	auipc	t0,0x7ffff
    1378:	d8c28293          	addi	t0,t0,-628 # 80000100 <__data_start+0x100>
    137c:	00550533          	add	a0,a0,t0
    1380:	00054503          	lbu	a0,0(a0)
    1384:	400022b7          	lui	t0,0x40002
    1388:	00a2a023          	sw	a0,0(t0) # 40002000 <__rodata_end+0x40000074>
    138c:	00f37513          	andi	a0,t1,15
    1390:	7ffff297          	auipc	t0,0x7ffff
    1394:	d7028293          	addi	t0,t0,-656 # 80000100 <__data_start+0x100>
    1398:	00550533          	add	a0,a0,t0
    139c:	00054503          	lbu	a0,0(a0)
    13a0:	400022b7          	lui	t0,0x40002
    13a4:	00a2a023          	sw	a0,0(t0) # 40002000 <__rodata_end+0x40000074>
    13a8:	00058513          	mv	a0,a1
    13ac:	00855513          	srli	a0,a0,0x8
    13b0:	00050513          	mv	a0,a0
    13b4:	00050313          	mv	t1,a0
    13b8:	00435513          	srli	a0,t1,0x4
    13bc:	00f57513          	andi	a0,a0,15
    13c0:	7ffff297          	auipc	t0,0x7ffff
    13c4:	d6028293          	addi	t0,t0,-672 # 80000120 <__data_start+0x120>
    13c8:	00550533          	add	a0,a0,t0
    13cc:	00054503          	lbu	a0,0(a0)
    13d0:	400022b7          	lui	t0,0x40002
    13d4:	00a2a023          	sw	a0,0(t0) # 40002000 <__rodata_end+0x40000074>
    13d8:	00f37513          	andi	a0,t1,15
    13dc:	7ffff297          	auipc	t0,0x7ffff
    13e0:	d4428293          	addi	t0,t0,-700 # 80000120 <__data_start+0x120>
    13e4:	00550533          	add	a0,a0,t0
    13e8:	00054503          	lbu	a0,0(a0)
    13ec:	400022b7          	lui	t0,0x40002
    13f0:	00a2a023          	sw	a0,0(t0) # 40002000 <__rodata_end+0x40000074>
    13f4:	00058513          	mv	a0,a1
    13f8:	00050513          	mv	a0,a0
    13fc:	00050313          	mv	t1,a0
    1400:	00435513          	srli	a0,t1,0x4
    1404:	00f57513          	andi	a0,a0,15
    1408:	7ffff297          	auipc	t0,0x7ffff
    140c:	d3828293          	addi	t0,t0,-712 # 80000140 <__data_start+0x140>
    1410:	00550533          	add	a0,a0,t0
    1414:	00054503          	lbu	a0,0(a0)
    1418:	400022b7          	lui	t0,0x40002
    141c:	00a2a023          	sw	a0,0(t0) # 40002000 <__rodata_end+0x40000074>
    1420:	00f37513          	andi	a0,t1,15
    1424:	7ffff297          	auipc	t0,0x7ffff
    1428:	d1c28293          	addi	t0,t0,-740 # 80000140 <__data_start+0x140>
    142c:	00550533          	add	a0,a0,t0
    1430:	00054503          	lbu	a0,0(a0)
    1434:	400022b7          	lui	t0,0x40002
    1438:	00a2a023          	sw	a0,0(t0) # 40002000 <__rodata_end+0x40000074>
    143c:	7ffff297          	auipc	t0,0x7ffff
    1440:	d0428293          	addi	t0,t0,-764 # 80000140 <__data_start+0x140>
    1444:	0002a083          	lw	ra,0(t0)
    1448:	0042a503          	lw	a0,4(t0)
    144c:	0082a583          	lw	a1,8(t0)
    1450:	7ffff517          	auipc	a0,0x7ffff
    1454:	d1050513          	addi	a0,a0,-752 # 80000160 <__data_start+0x160>
    1458:	00050293          	mv	t0,a0
    145c:	40002337          	lui	t1,0x40002
    1460:	0002c503          	lbu	a0,0(t0)
    1464:	00128293          	addi	t0,t0,1
    1468:	00050663          	beqz	a0,1474 <trap_vector+0x3cc>
    146c:	00a32023          	sw	a0,0(t1) # 40002000 <__rodata_end+0x40000074>
    1470:	ff1ff06f          	j	1460 <trap_vector+0x3b8>
    1474:	34302573          	csrr	a0,mtval
    1478:	7ffff297          	auipc	t0,0x7ffff
    147c:	cf828293          	addi	t0,t0,-776 # 80000170 <__data_start+0x170>
    1480:	0012a023          	sw	ra,0(t0)
    1484:	00a2a223          	sw	a0,4(t0)
    1488:	00b2a423          	sw	a1,8(t0)
    148c:	00050513          	mv	a0,a0
    1490:	00050593          	mv	a1,a0
    1494:	01855513          	srli	a0,a0,0x18
    1498:	00050513          	mv	a0,a0
    149c:	00050313          	mv	t1,a0
    14a0:	00435513          	srli	a0,t1,0x4
    14a4:	00f57513          	andi	a0,a0,15
    14a8:	7ffff297          	auipc	t0,0x7ffff
    14ac:	cd828293          	addi	t0,t0,-808 # 80000180 <__data_start+0x180>
    14b0:	00550533          	add	a0,a0,t0
    14b4:	00054503          	lbu	a0,0(a0)
    14b8:	400022b7          	lui	t0,0x40002
    14bc:	00a2a023          	sw	a0,0(t0) # 40002000 <__rodata_end+0x40000074>
    14c0:	00f37513          	andi	a0,t1,15
    14c4:	7ffff297          	auipc	t0,0x7ffff
    14c8:	cbc28293          	addi	t0,t0,-836 # 80000180 <__data_start+0x180>
    14cc:	00550533          	add	a0,a0,t0
    14d0:	00054503          	lbu	a0,0(a0)
    14d4:	400022b7          	lui	t0,0x40002
    14d8:	00a2a023          	sw	a0,0(t0) # 40002000 <__rodata_end+0x40000074>
    14dc:	00058513          	mv	a0,a1
    14e0:	01055513          	srli	a0,a0,0x10
    14e4:	00050513          	mv	a0,a0
    14e8:	00050313          	mv	t1,a0
    14ec:	00435513          	srli	a0,t1,0x4
    14f0:	00f57513          	andi	a0,a0,15
    14f4:	7ffff297          	auipc	t0,0x7ffff
    14f8:	cac28293          	addi	t0,t0,-852 # 800001a0 <__data_start+0x1a0>
    14fc:	00550533          	add	a0,a0,t0
    1500:	00054503          	lbu	a0,0(a0)
    1504:	400022b7          	lui	t0,0x40002
    1508:	00a2a023          	sw	a0,0(t0) # 40002000 <__rodata_end+0x40000074>
    150c:	00f37513          	andi	a0,t1,15
    1510:	7ffff297          	auipc	t0,0x7ffff
    1514:	c9028293          	addi	t0,t0,-880 # 800001a0 <__data_start+0x1a0>
    1518:	00550533          	add	a0,a0,t0
    151c:	00054503          	lbu	a0,0(a0)
    1520:	400022b7          	lui	t0,0x40002
    1524:	00a2a023          	sw	a0,0(t0) # 40002000 <__rodata_end+0x40000074>
    1528:	00058513          	mv	a0,a1
    152c:	00855513          	srli	a0,a0,0x8
    1530:	00050513          	mv	a0,a0
    1534:	00050313          	mv	t1,a0
    1538:	00435513          	srli	a0,t1,0x4
    153c:	00f57513          	andi	a0,a0,15
    1540:	7ffff297          	auipc	t0,0x7ffff
    1544:	c8028293          	addi	t0,t0,-896 # 800001c0 <__data_start+0x1c0>
    1548:	00550533          	add	a0,a0,t0
    154c:	00054503          	lbu	a0,0(a0)
    1550:	400022b7          	lui	t0,0x40002
    1554:	00a2a023          	sw	a0,0(t0) # 40002000 <__rodata_end+0x40000074>
    1558:	00f37513          	andi	a0,t1,15
    155c:	7ffff297          	auipc	t0,0x7ffff
    1560:	c6428293          	addi	t0,t0,-924 # 800001c0 <__data_start+0x1c0>
    1564:	00550533          	add	a0,a0,t0
    1568:	00054503          	lbu	a0,0(a0)
    156c:	400022b7          	lui	t0,0x40002
    1570:	00a2a023          	sw	a0,0(t0) # 40002000 <__rodata_end+0x40000074>
    1574:	00058513          	mv	a0,a1
    1578:	00050513          	mv	a0,a0
    157c:	00050313          	mv	t1,a0
    1580:	00435513          	srli	a0,t1,0x4
    1584:	00f57513          	andi	a0,a0,15
    1588:	7ffff297          	auipc	t0,0x7ffff
    158c:	c5828293          	addi	t0,t0,-936 # 800001e0 <__data_start+0x1e0>
    1590:	00550533          	add	a0,a0,t0
    1594:	00054503          	lbu	a0,0(a0)
    1598:	400022b7          	lui	t0,0x40002
    159c:	00a2a023          	sw	a0,0(t0) # 40002000 <__rodata_end+0x40000074>
    15a0:	00f37513          	andi	a0,t1,15
    15a4:	7ffff297          	auipc	t0,0x7ffff
    15a8:	c3c28293          	addi	t0,t0,-964 # 800001e0 <__data_start+0x1e0>
    15ac:	00550533          	add	a0,a0,t0
    15b0:	00054503          	lbu	a0,0(a0)
    15b4:	400022b7          	lui	t0,0x40002
    15b8:	00a2a023          	sw	a0,0(t0) # 40002000 <__rodata_end+0x40000074>
    15bc:	7ffff297          	auipc	t0,0x7ffff
    15c0:	c2428293          	addi	t0,t0,-988 # 800001e0 <__data_start+0x1e0>
    15c4:	0002a083          	lw	ra,0(t0)
    15c8:	0042a503          	lw	a0,4(t0)
    15cc:	0082a583          	lw	a1,8(t0)
    15d0:	7ffff517          	auipc	a0,0x7ffff
    15d4:	c3050513          	addi	a0,a0,-976 # 80000200 <__data_start+0x200>
    15d8:	00050293          	mv	t0,a0
    15dc:	40002337          	lui	t1,0x40002
    15e0:	0002c503          	lbu	a0,0(t0)
    15e4:	00128293          	addi	t0,t0,1
    15e8:	00050663          	beqz	a0,15f4 <trap_vector+0x54c>
    15ec:	00a32023          	sw	a0,0(t1) # 40002000 <__rodata_end+0x40000074>
    15f0:	ff1ff06f          	j	15e0 <trap_vector+0x538>
    15f4:	00000393          	li	t2,0
    15f8:	08000e13          	li	t3,128

000015fc <trap_dump_registers>:
    15fc:	0023d513          	srli	a0,t2,0x2
    1600:	7ffff297          	auipc	t0,0x7ffff
    1604:	c1028293          	addi	t0,t0,-1008 # 80000210 <__data_start+0x210>
    1608:	0012a023          	sw	ra,0(t0)
    160c:	00a2a223          	sw	a0,4(t0)
    1610:	00b2a423          	sw	a1,8(t0)
    1614:	00050513          	mv	a0,a0
    1618:	00050593          	mv	a1,a0
    161c:	01855513          	srli	a0,a0,0x18
    1620:	00050513          	mv	a0,a0
    1624:	00050313          	mv	t1,a0
    1628:	00435513          	srli	a0,t1,0x4
    162c:	00f57513          	andi	a0,a0,15
    1630:	7ffff297          	auipc	t0,0x7ffff
    1634:	bf028293          	addi	t0,t0,-1040 # 80000220 <__data_start+0x220>
    1638:	00550533          	add	a0,a0,t0
    163c:	00054503          	lbu	a0,0(a0)
    1640:	400022b7          	lui	t0,0x40002
    1644:	00a2a023          	sw	a0,0(t0) # 40002000 <__rodata_end+0x40000074>
    1648:	00f37513          	andi	a0,t1,15
    164c:	7ffff297          	auipc	t0,0x7ffff
    1650:	bd428293          	addi	t0,t0,-1068 # 80000220 <__data_start+0x220>
    1654:	00550533          	add	a0,a0,t0
    1658:	00054503          	lbu	a0,0(a0)
    165c:	400022b7          	lui	t0,0x40002
    1660:	00a2a023          	sw	a0,0(t0) # 40002000 <__rodata_end+0x40000074>
    1664:	00058513          	mv	a0,a1
    1668:	01055513          	srli	a0,a0,0x10
    166c:	00050513          	mv	a0,a0
    1670:	00050313          	mv	t1,a0
    1674:	00435513          	srli	a0,t1,0x4
    1678:	00f57513          	andi	a0,a0,15
    167c:	7ffff297          	auipc	t0,0x7ffff
    1680:	bc428293          	addi	t0,t0,-1084 # 80000240 <__data_start+0x240>
    1684:	00550533          	add	a0,a0,t0
    1688:	00054503          	lbu	a0,0(a0)
    168c:	400022b7          	lui	t0,0x40002
    1690:	00a2a023          	sw	a0,0(t0) # 40002000 <__rodata_end+0x40000074>
    1694:	00f37513          	andi	a0,t1,15
    1698:	7ffff297          	auipc	t0,0x7ffff
    169c:	ba828293          	addi	t0,t0,-1112 # 80000240 <__data_start+0x240>
    16a0:	00550533          	add	a0,a0,t0
    16a4:	00054503          	lbu	a0,0(a0)
    16a8:	400022b7          	lui	t0,0x40002
    16ac:	00a2a023          	sw	a0,0(t0) # 40002000 <__rodata_end+0x40000074>
    16b0:	00058513          	mv	a0,a1
    16b4:	00855513          	srli	a0,a0,0x8
    16b8:	00050513          	mv	a0,a0
    16bc:	00050313          	mv	t1,a0
    16c0:	00435513          	srli	a0,t1,0x4
    16c4:	00f57513          	andi	a0,a0,15
    16c8:	7ffff297          	auipc	t0,0x7ffff
    16cc:	b9828293          	addi	t0,t0,-1128 # 80000260 <__data_start+0x260>
    16d0:	00550533          	add	a0,a0,t0
    16d4:	00054503          	lbu	a0,0(a0)
    16d8:	400022b7          	lui	t0,0x40002
    16dc:	00a2a023          	sw	a0,0(t0) # 40002000 <__rodata_end+0x40000074>
    16e0:	00f37513          	andi	a0,t1,15
    16e4:	7ffff297          	auipc	t0,0x7ffff
    16e8:	b7c28293          	addi	t0,t0,-1156 # 80000260 <__data_start+0x260>
    16ec:	00550533          	add	a0,a0,t0
    16f0:	00054503          	lbu	a0,0(a0)
    16f4:	400022b7          	lui	t0,0x40002
    16f8:	00a2a023          	sw	a0,0(t0) # 40002000 <__rodata_end+0x40000074>
    16fc:	00058513          	mv	a0,a1
    1700:	00050513          	mv	a0,a0
    1704:	00050313          	mv	t1,a0
    1708:	00435513          	srli	a0,t1,0x4
    170c:	00f57513          	andi	a0,a0,15
    1710:	7ffff297          	auipc	t0,0x7ffff
    1714:	b7028293          	addi	t0,t0,-1168 # 80000280 <__data_start+0x280>
    1718:	00550533          	add	a0,a0,t0
    171c:	00054503          	lbu	a0,0(a0)
    1720:	400022b7          	lui	t0,0x40002
    1724:	00a2a023          	sw	a0,0(t0) # 40002000 <__rodata_end+0x40000074>
    1728:	00f37513          	andi	a0,t1,15
    172c:	7ffff297          	auipc	t0,0x7ffff
    1730:	b5428293          	addi	t0,t0,-1196 # 80000280 <__data_start+0x280>
    1734:	00550533          	add	a0,a0,t0
    1738:	00054503          	lbu	a0,0(a0)
    173c:	400022b7          	lui	t0,0x40002
    1740:	00a2a023          	sw	a0,0(t0) # 40002000 <__rodata_end+0x40000074>
    1744:	7ffff297          	auipc	t0,0x7ffff
    1748:	b3c28293          	addi	t0,t0,-1220 # 80000280 <__data_start+0x280>
    174c:	0002a083          	lw	ra,0(t0)
    1750:	0042a503          	lw	a0,4(t0)
    1754:	0082a583          	lw	a1,8(t0)
    1758:	7ffff517          	auipc	a0,0x7ffff
    175c:	b4850513          	addi	a0,a0,-1208 # 800002a0 <__data_start+0x2a0>
    1760:	00050293          	mv	t0,a0
    1764:	40002337          	lui	t1,0x40002
    1768:	0002c503          	lbu	a0,0(t0)
    176c:	00128293          	addi	t0,t0,1
    1770:	00050663          	beqz	a0,177c <trap_dump_registers+0x180>
    1774:	00a32023          	sw	a0,0(t1) # 40002000 <__rodata_end+0x40000074>
    1778:	ff1ff06f          	j	1768 <trap_dump_registers+0x16c>
    177c:	00238533          	add	a0,t2,sp
    1780:	00052503          	lw	a0,0(a0)
    1784:	7ffff297          	auipc	t0,0x7ffff
    1788:	b2c28293          	addi	t0,t0,-1236 # 800002b0 <__data_start+0x2b0>
    178c:	0012a023          	sw	ra,0(t0)
    1790:	00a2a223          	sw	a0,4(t0)
    1794:	00b2a423          	sw	a1,8(t0)
    1798:	00050513          	mv	a0,a0
    179c:	00050593          	mv	a1,a0
    17a0:	01855513          	srli	a0,a0,0x18
    17a4:	00050513          	mv	a0,a0
    17a8:	00050313          	mv	t1,a0
    17ac:	00435513          	srli	a0,t1,0x4
    17b0:	00f57513          	andi	a0,a0,15
    17b4:	7ffff297          	auipc	t0,0x7ffff
    17b8:	b0c28293          	addi	t0,t0,-1268 # 800002c0 <__data_start+0x2c0>
    17bc:	00550533          	add	a0,a0,t0
    17c0:	00054503          	lbu	a0,0(a0)
    17c4:	400022b7          	lui	t0,0x40002
    17c8:	00a2a023          	sw	a0,0(t0) # 40002000 <__rodata_end+0x40000074>
    17cc:	00f37513          	andi	a0,t1,15
    17d0:	7ffff297          	auipc	t0,0x7ffff
    17d4:	af028293          	addi	t0,t0,-1296 # 800002c0 <__data_start+0x2c0>
    17d8:	00550533          	add	a0,a0,t0
    17dc:	00054503          	lbu	a0,0(a0)
    17e0:	400022b7          	lui	t0,0x40002
    17e4:	00a2a023          	sw	a0,0(t0) # 40002000 <__rodata_end+0x40000074>
    17e8:	00058513          	mv	a0,a1
    17ec:	01055513          	srli	a0,a0,0x10
    17f0:	00050513          	mv	a0,a0
    17f4:	00050313          	mv	t1,a0
    17f8:	00435513          	srli	a0,t1,0x4
    17fc:	00f57513          	andi	a0,a0,15
    1800:	7ffff297          	auipc	t0,0x7ffff
    1804:	ae028293          	addi	t0,t0,-1312 # 800002e0 <__data_start+0x2e0>
    1808:	00550533          	add	a0,a0,t0
    180c:	00054503          	lbu	a0,0(a0)
    1810:	400022b7          	lui	t0,0x40002
    1814:	00a2a023          	sw	a0,0(t0) # 40002000 <__rodata_end+0x40000074>
    1818:	00f37513          	andi	a0,t1,15
    181c:	7ffff297          	auipc	t0,0x7ffff
    1820:	ac428293          	addi	t0,t0,-1340 # 800002e0 <__data_start+0x2e0>
    1824:	00550533          	add	a0,a0,t0
    1828:	00054503          	lbu	a0,0(a0)
    182c:	400022b7          	lui	t0,0x40002
    1830:	00a2a023          	sw	a0,0(t0) # 40002000 <__rodata_end+0x40000074>
    1834:	00058513          	mv	a0,a1
    1838:	00855513          	srli	a0,a0,0x8
    183c:	00050513          	mv	a0,a0
    1840:	00050313          	mv	t1,a0
    1844:	00435513          	srli	a0,t1,0x4
    1848:	00f57513          	andi	a0,a0,15
    184c:	7ffff297          	auipc	t0,0x7ffff
    1850:	ab428293          	addi	t0,t0,-1356 # 80000300 <__data_start+0x300>
    1854:	00550533          	add	a0,a0,t0
    1858:	00054503          	lbu	a0,0(a0)
    185c:	400022b7          	lui	t0,0x40002
    1860:	00a2a023          	sw	a0,0(t0) # 40002000 <__rodata_end+0x40000074>
    1864:	00f37513          	andi	a0,t1,15
    1868:	7ffff297          	auipc	t0,0x7ffff
    186c:	a9828293          	addi	t0,t0,-1384 # 80000300 <__data_start+0x300>
    1870:	00550533          	add	a0,a0,t0
    1874:	00054503          	lbu	a0,0(a0)
    1878:	400022b7          	lui	t0,0x40002
    187c:	00a2a023          	sw	a0,0(t0) # 40002000 <__rodata_end+0x40000074>
    1880:	00058513          	mv	a0,a1
    1884:	00050513          	mv	a0,a0
    1888:	00050313          	mv	t1,a0
    188c:	00435513          	srli	a0,t1,0x4
    1890:	00f57513          	andi	a0,a0,15
    1894:	7ffff297          	auipc	t0,0x7ffff
    1898:	a8c28293          	addi	t0,t0,-1396 # 80000320 <__data_start+0x320>
    189c:	00550533          	add	a0,a0,t0
    18a0:	00054503          	lbu	a0,0(a0)
    18a4:	400022b7          	lui	t0,0x40002
    18a8:	00a2a023          	sw	a0,0(t0) # 40002000 <__rodata_end+0x40000074>
    18ac:	00f37513          	andi	a0,t1,15
    18b0:	7ffff297          	auipc	t0,0x7ffff
    18b4:	a7028293          	addi	t0,t0,-1424 # 80000320 <__data_start+0x320>
    18b8:	00550533          	add	a0,a0,t0
    18bc:	00054503          	lbu	a0,0(a0)
    18c0:	400022b7          	lui	t0,0x40002
    18c4:	00a2a023          	sw	a0,0(t0) # 40002000 <__rodata_end+0x40000074>
    18c8:	7ffff297          	auipc	t0,0x7ffff
    18cc:	a5828293          	addi	t0,t0,-1448 # 80000320 <__data_start+0x320>
    18d0:	0002a083          	lw	ra,0(t0)
    18d4:	0042a503          	lw	a0,4(t0)
    18d8:	0082a583          	lw	a1,8(t0)
    18dc:	7ffff517          	auipc	a0,0x7ffff
    18e0:	a6450513          	addi	a0,a0,-1436 # 80000340 <__data_start+0x340>
    18e4:	00050293          	mv	t0,a0
    18e8:	40002337          	lui	t1,0x40002
    18ec:	0002c503          	lbu	a0,0(t0)
    18f0:	00128293          	addi	t0,t0,1
    18f4:	00050663          	beqz	a0,1900 <trap_dump_registers+0x304>
    18f8:	00a32023          	sw	a0,0(t1) # 40002000 <__rodata_end+0x40000074>
    18fc:	ff1ff06f          	j	18ec <trap_dump_registers+0x2f0>
    1900:	00438393          	addi	t2,t2,4
    1904:	cfc39ce3          	bne	t2,t3,15fc <trap_dump_registers>
    1908:	7ffff517          	auipc	a0,0x7ffff
    190c:	a4850513          	addi	a0,a0,-1464 # 80000350 <__data_start+0x350>
    1910:	00050293          	mv	t0,a0
    1914:	40002337          	lui	t1,0x40002
    1918:	0002c503          	lbu	a0,0(t0)
    191c:	00128293          	addi	t0,t0,1
    1920:	00050663          	beqz	a0,192c <abort>
    1924:	00a32023          	sw	a0,0(t1) # 40002000 <__rodata_end+0x40000074>
    1928:	ff1ff06f          	j	1918 <trap_dump_registers+0x31c>

0000192c <abort>:
    192c:	ed8ff06f          	j	1004 <_end>
    1930:	00012003          	lw	zero,0(sp)
    1934:	00412083          	lw	ra,4(sp)
    1938:	00812103          	lw	sp,8(sp)
    193c:	00c12183          	lw	gp,12(sp)
    1940:	01012203          	lw	tp,16(sp)
    1944:	01412283          	lw	t0,20(sp)
    1948:	01812303          	lw	t1,24(sp)
    194c:	01c12383          	lw	t2,28(sp)
    1950:	02012403          	lw	s0,32(sp)
    1954:	02412483          	lw	s1,36(sp)
    1958:	02812503          	lw	a0,40(sp)
    195c:	02c12583          	lw	a1,44(sp)
    1960:	03012603          	lw	a2,48(sp)
    1964:	03412683          	lw	a3,52(sp)
    1968:	03812703          	lw	a4,56(sp)
    196c:	03c12783          	lw	a5,60(sp)
    1970:	04012803          	lw	a6,64(sp)
    1974:	04412883          	lw	a7,68(sp)
    1978:	04812903          	lw	s2,72(sp)
    197c:	04c12983          	lw	s3,76(sp)
    1980:	05012a03          	lw	s4,80(sp)
    1984:	05412a83          	lw	s5,84(sp)
    1988:	05812b03          	lw	s6,88(sp)
    198c:	05c12b83          	lw	s7,92(sp)
    1990:	06012c03          	lw	s8,96(sp)
    1994:	06412c83          	lw	s9,100(sp)
    1998:	06812d03          	lw	s10,104(sp)
    199c:	06c12d83          	lw	s11,108(sp)
    19a0:	07012e03          	lw	t3,112(sp)
    19a4:	07412e83          	lw	t4,116(sp)
    19a8:	07812f03          	lw	t5,120(sp)
    19ac:	07c12f83          	lw	t6,124(sp)
    19b0:	08010113          	addi	sp,sp,128
    19b4:	30200073          	mret
    19b8:	0000                	unimp
	...

000019bc <_load>:
    19bc:	800006b7          	lui	a3,0x80000
    19c0:	800007b7          	lui	a5,0x80000
    19c4:	80000737          	lui	a4,0x80000
    19c8:	800005b7          	lui	a1,0x80000
    19cc:	37468693          	addi	a3,a3,884 # 80000374 <stack_top+0xfffe0374>
    19d0:	00078793          	mv	a5,a5
    19d4:	37470713          	addi	a4,a4,884 # 80000374 <stack_top+0xfffe0374>
    19d8:	37458593          	addi	a1,a1,884 # 80000374 <stack_top+0xfffe0374>
    19dc:	40f68533          	sub	a0,a3,a5
    19e0:	40e585b3          	sub	a1,a1,a4
    19e4:	02f68863          	beq	a3,a5,1a14 <_load+0x58>
    19e8:	000027b7          	lui	a5,0x2
    19ec:	f8c78693          	addi	a3,a5,-116 # 1f8c <__rodata_end>
    19f0:	80000837          	lui	a6,0x80000
    19f4:	f8c78793          	addi	a5,a5,-116
    19f8:	00d50533          	add	a0,a0,a3
    19fc:	40f80833          	sub	a6,a6,a5
    1a00:	0007c603          	lbu	a2,0(a5)
    1a04:	00f806b3          	add	a3,a6,a5
    1a08:	00178793          	addi	a5,a5,1
    1a0c:	00c68023          	sb	a2,0(a3)
    1a10:	fea798e3          	bne	a5,a0,1a00 <_load+0x44>
    1a14:	00058c63          	beqz	a1,1a2c <_load+0x70>
    1a18:	ffc5f793          	andi	a5,a1,-4
    1a1c:	00e787b3          	add	a5,a5,a4
    1a20:	00072023          	sw	zero,0(a4)
    1a24:	00470713          	addi	a4,a4,4
    1a28:	fef71ce3          	bne	a4,a5,1a20 <_load+0x64>
    1a2c:	00008067          	ret

00001a30 <merge>:
    1a30:	40b60eb3          	sub	t4,a2,a1
    1a34:	001e8f13          	addi	t5,t4,1
    1a38:	40c686b3          	sub	a3,a3,a2
    1a3c:	002f1793          	slli	a5,t5,0x2
    1a40:	ff010113          	addi	sp,sp,-16
    1a44:	00f78793          	addi	a5,a5,15
    1a48:	00269313          	slli	t1,a3,0x2
    1a4c:	00812623          	sw	s0,12(sp)
    1a50:	ff07f793          	andi	a5,a5,-16
    1a54:	01010413          	addi	s0,sp,16
    1a58:	00f30713          	addi	a4,t1,15
    1a5c:	40f10133          	sub	sp,sp,a5
    1a60:	ff077793          	andi	a5,a4,-16
    1a64:	00010f93          	mv	t6,sp
    1a68:	40f10133          	sub	sp,sp,a5
    1a6c:	00010e13          	mv	t3,sp
    1a70:	15e05063          	blez	t5,1bb0 <merge+0x180>
    1a74:	00259713          	slli	a4,a1,0x2
    1a78:	00450293          	addi	t0,a0,4
    1a7c:	00261893          	slli	a7,a2,0x2
    1a80:	00e507b3          	add	a5,a0,a4
    1a84:	000f8813          	mv	a6,t6
    1a88:	011282b3          	add	t0,t0,a7
    1a8c:	0007a883          	lw	a7,0(a5)
    1a90:	00478793          	addi	a5,a5,4
    1a94:	00480813          	addi	a6,a6,4 # 80000004 <stack_top+0xfffe0004>
    1a98:	ff182e23          	sw	a7,-4(a6)
    1a9c:	fe5798e3          	bne	a5,t0,1a8c <merge+0x5c>
    1aa0:	10d05e63          	blez	a3,1bbc <merge+0x18c>
    1aa4:	00160713          	addi	a4,a2,1
    1aa8:	00271713          	slli	a4,a4,0x2
    1aac:	00e50733          	add	a4,a0,a4
    1ab0:	000e0793          	mv	a5,t3
    1ab4:	01c30833          	add	a6,t1,t3
    1ab8:	00072603          	lw	a2,0(a4)
    1abc:	00478793          	addi	a5,a5,4
    1ac0:	00470713          	addi	a4,a4,4
    1ac4:	fec7ae23          	sw	a2,-4(a5)
    1ac8:	ff0798e3          	bne	a5,a6,1ab8 <merge+0x88>
    1acc:	0fe05463          	blez	t5,1bb4 <merge+0x184>
    1ad0:	00259893          	slli	a7,a1,0x2
    1ad4:	011508b3          	add	a7,a0,a7
    1ad8:	00000813          	li	a6,0
    1adc:	00000613          	li	a2,0
    1ae0:	01c0006f          	j	1afc <merge+0xcc>
    1ae4:	00180813          	addi	a6,a6,1
    1ae8:	00e8a023          	sw	a4,0(a7)
    1aec:	00158593          	addi	a1,a1,1
    1af0:	03e85e63          	bge	a6,t5,1b2c <merge+0xfc>
    1af4:	00488893          	addi	a7,a7,4
    1af8:	06d65863          	bge	a2,a3,1b68 <merge+0x138>
    1afc:	00281713          	slli	a4,a6,0x2
    1b00:	00261793          	slli	a5,a2,0x2
    1b04:	00ef8733          	add	a4,t6,a4
    1b08:	00fe07b3          	add	a5,t3,a5
    1b0c:	00072703          	lw	a4,0(a4)
    1b10:	0007a783          	lw	a5,0(a5)
    1b14:	fce7d8e3          	bge	a5,a4,1ae4 <merge+0xb4>
    1b18:	00078713          	mv	a4,a5
    1b1c:	00e8a023          	sw	a4,0(a7)
    1b20:	00160613          	addi	a2,a2,1
    1b24:	00158593          	addi	a1,a1,1
    1b28:	fde846e3          	blt	a6,t5,1af4 <merge+0xc4>
    1b2c:	02d65663          	bge	a2,a3,1b58 <merge+0x128>
    1b30:	00261793          	slli	a5,a2,0x2
    1b34:	00259593          	slli	a1,a1,0x2
    1b38:	00fe07b3          	add	a5,t3,a5
    1b3c:	00b50533          	add	a0,a0,a1
    1b40:	006e0e33          	add	t3,t3,t1
    1b44:	0007a703          	lw	a4,0(a5)
    1b48:	00478793          	addi	a5,a5,4
    1b4c:	00450513          	addi	a0,a0,4
    1b50:	fee52e23          	sw	a4,-4(a0)
    1b54:	fefe18e3          	bne	t3,a5,1b44 <merge+0x114>
    1b58:	ff040113          	addi	sp,s0,-16
    1b5c:	00c12403          	lw	s0,12(sp)
    1b60:	01010113          	addi	sp,sp,16
    1b64:	00008067          	ret
    1b68:	00259713          	slli	a4,a1,0x2
    1b6c:	00281893          	slli	a7,a6,0x2
    1b70:	00e507b3          	add	a5,a0,a4
    1b74:	011f88b3          	add	a7,t6,a7
    1b78:	00080713          	mv	a4,a6
    1b7c:	0008af83          	lw	t6,0(a7)
    1b80:	00070f13          	mv	t5,a4
    1b84:	00488893          	addi	a7,a7,4
    1b88:	01f7a023          	sw	t6,0(a5)
    1b8c:	00170713          	addi	a4,a4,1
    1b90:	00478793          	addi	a5,a5,4
    1b94:	ffdf44e3          	blt	t5,t4,1b7c <merge+0x14c>
    1b98:	00158593          	addi	a1,a1,1
    1b9c:	00000793          	li	a5,0
    1ba0:	010ec463          	blt	t4,a6,1ba8 <merge+0x178>
    1ba4:	410e87b3          	sub	a5,t4,a6
    1ba8:	00b785b3          	add	a1,a5,a1
    1bac:	f81ff06f          	j	1b2c <merge+0xfc>
    1bb0:	eed04ae3          	bgtz	a3,1aa4 <merge+0x74>
    1bb4:	00000613          	li	a2,0
    1bb8:	f75ff06f          	j	1b2c <merge+0xfc>
    1bbc:	00000613          	li	a2,0
    1bc0:	00000813          	li	a6,0
    1bc4:	fa9ff06f          	j	1b6c <merge+0x13c>

00001bc8 <mergeSort.part.0>:
    1bc8:	fd010113          	addi	sp,sp,-48
    1bcc:	40b607b3          	sub	a5,a2,a1
    1bd0:	03212023          	sw	s2,32(sp)
    1bd4:	4017d913          	srai	s2,a5,0x1
    1bd8:	02812423          	sw	s0,40(sp)
    1bdc:	02912223          	sw	s1,36(sp)
    1be0:	01312e23          	sw	s3,28(sp)
    1be4:	02112623          	sw	ra,44(sp)
    1be8:	01412c23          	sw	s4,24(sp)
    1bec:	01512a23          	sw	s5,20(sp)
    1bf0:	01612823          	sw	s6,16(sp)
    1bf4:	01712623          	sw	s7,12(sp)
    1bf8:	00b90933          	add	s2,s2,a1
    1bfc:	00058413          	mv	s0,a1
    1c00:	00060493          	mv	s1,a2
    1c04:	00050993          	mv	s3,a0
    1c08:	0525c463          	blt	a1,s2,1c50 <mergeSort.part.0+0x88>
    1c0c:	00190a13          	addi	s4,s2,1
    1c10:	069a4863          	blt	s4,s1,1c80 <mergeSort.part.0+0xb8>
    1c14:	00040593          	mv	a1,s0
    1c18:	02812403          	lw	s0,40(sp)
    1c1c:	02c12083          	lw	ra,44(sp)
    1c20:	01812a03          	lw	s4,24(sp)
    1c24:	01412a83          	lw	s5,20(sp)
    1c28:	01012b03          	lw	s6,16(sp)
    1c2c:	00c12b83          	lw	s7,12(sp)
    1c30:	00048693          	mv	a3,s1
    1c34:	00090613          	mv	a2,s2
    1c38:	02412483          	lw	s1,36(sp)
    1c3c:	02012903          	lw	s2,32(sp)
    1c40:	00098513          	mv	a0,s3
    1c44:	01c12983          	lw	s3,28(sp)
    1c48:	03010113          	addi	sp,sp,48
    1c4c:	de5ff06f          	j	1a30 <merge>
    1c50:	4027da93          	srai	s5,a5,0x2
    1c54:	00ba8ab3          	add	s5,s5,a1
    1c58:	0555cc63          	blt	a1,s5,1cb0 <mergeSort.part.0+0xe8>
    1c5c:	001a8a13          	addi	s4,s5,1
    1c60:	092a4063          	blt	s4,s2,1ce0 <mergeSort.part.0+0x118>
    1c64:	00090693          	mv	a3,s2
    1c68:	000a8613          	mv	a2,s5
    1c6c:	00040593          	mv	a1,s0
    1c70:	00098513          	mv	a0,s3
    1c74:	00190a13          	addi	s4,s2,1
    1c78:	db9ff0ef          	jal	ra,1a30 <merge>
    1c7c:	f89a5ce3          	bge	s4,s1,1c14 <mergeSort.part.0+0x4c>
    1c80:	414487b3          	sub	a5,s1,s4
    1c84:	4017da93          	srai	s5,a5,0x1
    1c88:	014a8ab3          	add	s5,s5,s4
    1c8c:	0b5a4a63          	blt	s4,s5,1d40 <mergeSort.part.0+0x178>
    1c90:	001a8b13          	addi	s6,s5,1
    1c94:	069b4e63          	blt	s6,s1,1d10 <mergeSort.part.0+0x148>
    1c98:	00048693          	mv	a3,s1
    1c9c:	000a8613          	mv	a2,s5
    1ca0:	000a0593          	mv	a1,s4
    1ca4:	00098513          	mv	a0,s3
    1ca8:	d89ff0ef          	jal	ra,1a30 <merge>
    1cac:	f69ff06f          	j	1c14 <mergeSort.part.0+0x4c>
    1cb0:	4037d793          	srai	a5,a5,0x3
    1cb4:	00b78a33          	add	s4,a5,a1
    1cb8:	0b45ca63          	blt	a1,s4,1d6c <mergeSort.part.0+0x1a4>
    1cbc:	001a0593          	addi	a1,s4,1
    1cc0:	1355c263          	blt	a1,s5,1de4 <mergeSort.part.0+0x21c>
    1cc4:	000a0613          	mv	a2,s4
    1cc8:	000a8693          	mv	a3,s5
    1ccc:	00040593          	mv	a1,s0
    1cd0:	00098513          	mv	a0,s3
    1cd4:	001a8a13          	addi	s4,s5,1
    1cd8:	d59ff0ef          	jal	ra,1a30 <merge>
    1cdc:	f92a54e3          	bge	s4,s2,1c64 <mergeSort.part.0+0x9c>
    1ce0:	41490b33          	sub	s6,s2,s4
    1ce4:	401b5b13          	srai	s6,s6,0x1
    1ce8:	014b0b33          	add	s6,s6,s4
    1cec:	096a4e63          	blt	s4,s6,1d88 <mergeSort.part.0+0x1c0>
    1cf0:	001b0593          	addi	a1,s6,1
    1cf4:	0925c263          	blt	a1,s2,1d78 <mergeSort.part.0+0x1b0>
    1cf8:	00090693          	mv	a3,s2
    1cfc:	000b0613          	mv	a2,s6
    1d00:	000a0593          	mv	a1,s4
    1d04:	00098513          	mv	a0,s3
    1d08:	d29ff0ef          	jal	ra,1a30 <merge>
    1d0c:	f59ff06f          	j	1c64 <mergeSort.part.0+0x9c>
    1d10:	41648bb3          	sub	s7,s1,s6
    1d14:	401bdb93          	srai	s7,s7,0x1
    1d18:	016b8bb3          	add	s7,s7,s6
    1d1c:	0b7b4a63          	blt	s6,s7,1dd0 <mergeSort.part.0+0x208>
    1d20:	001b8593          	addi	a1,s7,1
    1d24:	0895ce63          	blt	a1,s1,1dc0 <mergeSort.part.0+0x1f8>
    1d28:	00048693          	mv	a3,s1
    1d2c:	000b8613          	mv	a2,s7
    1d30:	000b0593          	mv	a1,s6
    1d34:	00098513          	mv	a0,s3
    1d38:	cf9ff0ef          	jal	ra,1a30 <merge>
    1d3c:	f5dff06f          	j	1c98 <mergeSort.part.0+0xd0>
    1d40:	4027d793          	srai	a5,a5,0x2
    1d44:	01478b33          	add	s6,a5,s4
    1d48:	076a4263          	blt	s4,s6,1dac <mergeSort.part.0+0x1e4>
    1d4c:	001b0593          	addi	a1,s6,1
    1d50:	0555c663          	blt	a1,s5,1d9c <mergeSort.part.0+0x1d4>
    1d54:	000a8693          	mv	a3,s5
    1d58:	000b0613          	mv	a2,s6
    1d5c:	000a0593          	mv	a1,s4
    1d60:	00098513          	mv	a0,s3
    1d64:	ccdff0ef          	jal	ra,1a30 <merge>
    1d68:	f29ff06f          	j	1c90 <mergeSort.part.0+0xc8>
    1d6c:	000a0613          	mv	a2,s4
    1d70:	e59ff0ef          	jal	ra,1bc8 <mergeSort.part.0>
    1d74:	f49ff06f          	j	1cbc <mergeSort.part.0+0xf4>
    1d78:	00090613          	mv	a2,s2
    1d7c:	00098513          	mv	a0,s3
    1d80:	e49ff0ef          	jal	ra,1bc8 <mergeSort.part.0>
    1d84:	f75ff06f          	j	1cf8 <mergeSort.part.0+0x130>
    1d88:	000b0613          	mv	a2,s6
    1d8c:	000a0593          	mv	a1,s4
    1d90:	00098513          	mv	a0,s3
    1d94:	e35ff0ef          	jal	ra,1bc8 <mergeSort.part.0>
    1d98:	f59ff06f          	j	1cf0 <mergeSort.part.0+0x128>
    1d9c:	000a8613          	mv	a2,s5
    1da0:	00098513          	mv	a0,s3
    1da4:	e25ff0ef          	jal	ra,1bc8 <mergeSort.part.0>
    1da8:	fadff06f          	j	1d54 <mergeSort.part.0+0x18c>
    1dac:	000b0613          	mv	a2,s6
    1db0:	000a0593          	mv	a1,s4
    1db4:	00098513          	mv	a0,s3
    1db8:	e11ff0ef          	jal	ra,1bc8 <mergeSort.part.0>
    1dbc:	f91ff06f          	j	1d4c <mergeSort.part.0+0x184>
    1dc0:	00048613          	mv	a2,s1
    1dc4:	00098513          	mv	a0,s3
    1dc8:	e01ff0ef          	jal	ra,1bc8 <mergeSort.part.0>
    1dcc:	f5dff06f          	j	1d28 <mergeSort.part.0+0x160>
    1dd0:	000b8613          	mv	a2,s7
    1dd4:	000b0593          	mv	a1,s6
    1dd8:	00098513          	mv	a0,s3
    1ddc:	dedff0ef          	jal	ra,1bc8 <mergeSort.part.0>
    1de0:	f41ff06f          	j	1d20 <mergeSort.part.0+0x158>
    1de4:	000a8613          	mv	a2,s5
    1de8:	00098513          	mv	a0,s3
    1dec:	dddff0ef          	jal	ra,1bc8 <mergeSort.part.0>
    1df0:	ed5ff06f          	j	1cc4 <mergeSort.part.0+0xfc>

00001df4 <mergeSort>:
    1df4:	00c5c463          	blt	a1,a2,1dfc <mergeSort+0x8>
    1df8:	00008067          	ret
    1dfc:	fe010113          	addi	sp,sp,-32
    1e00:	40b607b3          	sub	a5,a2,a1
    1e04:	01312623          	sw	s3,12(sp)
    1e08:	4017d993          	srai	s3,a5,0x1
    1e0c:	00812c23          	sw	s0,24(sp)
    1e10:	00912a23          	sw	s1,20(sp)
    1e14:	01212823          	sw	s2,16(sp)
    1e18:	00112e23          	sw	ra,28(sp)
    1e1c:	01412423          	sw	s4,8(sp)
    1e20:	01512223          	sw	s5,4(sp)
    1e24:	00b989b3          	add	s3,s3,a1
    1e28:	00058413          	mv	s0,a1
    1e2c:	00060493          	mv	s1,a2
    1e30:	00050913          	mv	s2,a0
    1e34:	0535c063          	blt	a1,s3,1e74 <mergeSort+0x80>
    1e38:	00198a13          	addi	s4,s3,1
    1e3c:	069a4463          	blt	s4,s1,1ea4 <mergeSort+0xb0>
    1e40:	00040593          	mv	a1,s0
    1e44:	01812403          	lw	s0,24(sp)
    1e48:	01c12083          	lw	ra,28(sp)
    1e4c:	00812a03          	lw	s4,8(sp)
    1e50:	00412a83          	lw	s5,4(sp)
    1e54:	00048693          	mv	a3,s1
    1e58:	00098613          	mv	a2,s3
    1e5c:	01412483          	lw	s1,20(sp)
    1e60:	00c12983          	lw	s3,12(sp)
    1e64:	00090513          	mv	a0,s2
    1e68:	01012903          	lw	s2,16(sp)
    1e6c:	02010113          	addi	sp,sp,32
    1e70:	bc1ff06f          	j	1a30 <merge>
    1e74:	4027d793          	srai	a5,a5,0x2
    1e78:	00b78a33          	add	s4,a5,a1
    1e7c:	0545cc63          	blt	a1,s4,1ed4 <mergeSort+0xe0>
    1e80:	001a0593          	addi	a1,s4,1
    1e84:	0935c063          	blt	a1,s3,1f04 <mergeSort+0x110>
    1e88:	000a0613          	mv	a2,s4
    1e8c:	00098693          	mv	a3,s3
    1e90:	00040593          	mv	a1,s0
    1e94:	00090513          	mv	a0,s2
    1e98:	00198a13          	addi	s4,s3,1
    1e9c:	b95ff0ef          	jal	ra,1a30 <merge>
    1ea0:	fa9a50e3          	bge	s4,s1,1e40 <mergeSort+0x4c>
    1ea4:	41448ab3          	sub	s5,s1,s4
    1ea8:	401ada93          	srai	s5,s5,0x1
    1eac:	014a8ab3          	add	s5,s5,s4
    1eb0:	055a4063          	blt	s4,s5,1ef0 <mergeSort+0xfc>
    1eb4:	001a8593          	addi	a1,s5,1
    1eb8:	0295c463          	blt	a1,s1,1ee0 <mergeSort+0xec>
    1ebc:	00048693          	mv	a3,s1
    1ec0:	000a8613          	mv	a2,s5
    1ec4:	000a0593          	mv	a1,s4
    1ec8:	00090513          	mv	a0,s2
    1ecc:	b65ff0ef          	jal	ra,1a30 <merge>
    1ed0:	f71ff06f          	j	1e40 <mergeSort+0x4c>
    1ed4:	000a0613          	mv	a2,s4
    1ed8:	cf1ff0ef          	jal	ra,1bc8 <mergeSort.part.0>
    1edc:	fa5ff06f          	j	1e80 <mergeSort+0x8c>
    1ee0:	00048613          	mv	a2,s1
    1ee4:	00090513          	mv	a0,s2
    1ee8:	ce1ff0ef          	jal	ra,1bc8 <mergeSort.part.0>
    1eec:	fd1ff06f          	j	1ebc <mergeSort+0xc8>
    1ef0:	000a8613          	mv	a2,s5
    1ef4:	000a0593          	mv	a1,s4
    1ef8:	00090513          	mv	a0,s2
    1efc:	ccdff0ef          	jal	ra,1bc8 <mergeSort.part.0>
    1f00:	fb5ff06f          	j	1eb4 <mergeSort+0xc0>
    1f04:	00098613          	mv	a2,s3
    1f08:	00090513          	mv	a0,s2
    1f0c:	cbdff0ef          	jal	ra,1bc8 <mergeSort.part.0>
    1f10:	f79ff06f          	j	1e88 <mergeSort+0x94>

Disassembly of section .text.startup:

00001f14 <main>:
    1f14:	000027b7          	lui	a5,0x2
    1f18:	f7478793          	addi	a5,a5,-140 # 1f74 <main+0x60>
    1f1c:	0007a303          	lw	t1,0(a5)
    1f20:	0047a883          	lw	a7,4(a5)
    1f24:	0087a803          	lw	a6,8(a5)
    1f28:	00c7a683          	lw	a3,12(a5)
    1f2c:	0107a703          	lw	a4,16(a5)
    1f30:	0147a783          	lw	a5,20(a5)
    1f34:	fd010113          	addi	sp,sp,-48
    1f38:	00810513          	addi	a0,sp,8
    1f3c:	00500613          	li	a2,5
    1f40:	00000593          	li	a1,0
    1f44:	02112623          	sw	ra,44(sp)
    1f48:	00612423          	sw	t1,8(sp)
    1f4c:	01112623          	sw	a7,12(sp)
    1f50:	01012823          	sw	a6,16(sp)
    1f54:	00d12a23          	sw	a3,20(sp)
    1f58:	00e12c23          	sw	a4,24(sp)
    1f5c:	00f12e23          	sw	a5,28(sp)
    1f60:	c69ff0ef          	jal	ra,1bc8 <mergeSort.part.0>
    1f64:	02c12083          	lw	ra,44(sp)
    1f68:	00000513          	li	a0,0
    1f6c:	03010113          	addi	sp,sp,48
    1f70:	00008067          	ret

Disassembly of section .rodata:

00001f74 <__rodata_end-0x18>:
    1f74:	000c                	0xc
    1f76:	0000                	unimp
    1f78:	0000000b          	0xb
    1f7c:	000d                	c.nop	3
    1f7e:	0000                	unimp
    1f80:	0005                	c.nop	1
    1f82:	0000                	unimp
    1f84:	0006                	c.slli	zero,0x1
    1f86:	0000                	unimp
    1f88:	00000007          	0x7

Disassembly of section .data:

80000000 <__data_start>:
80000000:	34335b1b          	0x34335b1b
80000004:	0a6d                	addi	s4,s4,27
80000006:	7845                	lui	a6,0xffff1
80000008:	74706563          	bltu	zero,t2,80000752 <__bss_end+0x3de>
8000000c:	6f69                	lui	t5,0x1a
8000000e:	206e                	fld	ft0,216(sp)
80000010:	73756163          	bltu	a0,s7,80000732 <__bss_end+0x3be>
80000014:	6465                	lui	s0,0x19
80000016:	0a2e                	slli	s4,s4,0xb
	...
80000020:	636d                	lui	t1,0x1b
80000022:	7561                	lui	a0,0xffff8
80000024:	003a6573          	csrrsi	a0,fcsr,20
	...
80000040:	3130                	fld	fa2,96(a0)
80000042:	3332                	fld	ft6,296(sp)
80000044:	3534                	fld	fa3,104(a0)
80000046:	3736                	fld	fa4,360(sp)
80000048:	3938                	fld	fa4,112(a0)
8000004a:	6261                	lui	tp,0x18
8000004c:	66656463          	bltu	a0,t1,800006b4 <__bss_end+0x340>
	...
80000060:	3130                	fld	fa2,96(a0)
80000062:	3332                	fld	ft6,296(sp)
80000064:	3534                	fld	fa3,104(a0)
80000066:	3736                	fld	fa4,360(sp)
80000068:	3938                	fld	fa4,112(a0)
8000006a:	6261                	lui	tp,0x18
8000006c:	66656463          	bltu	a0,t1,800006d4 <__bss_end+0x360>
	...
80000080:	3130                	fld	fa2,96(a0)
80000082:	3332                	fld	ft6,296(sp)
80000084:	3534                	fld	fa3,104(a0)
80000086:	3736                	fld	fa4,360(sp)
80000088:	3938                	fld	fa4,112(a0)
8000008a:	6261                	lui	tp,0x18
8000008c:	66656463          	bltu	a0,t1,800006f4 <__bss_end+0x380>
	...
800000a0:	3130                	fld	fa2,96(a0)
800000a2:	3332                	fld	ft6,296(sp)
800000a4:	3534                	fld	fa3,104(a0)
800000a6:	3736                	fld	fa4,360(sp)
800000a8:	3938                	fld	fa4,112(a0)
800000aa:	6261                	lui	tp,0x18
800000ac:	66656463          	bltu	a0,t1,80000714 <__bss_end+0x3a0>
	...
800000c0:	6d20                	flw	fs0,88(a0)
800000c2:	7065                	c.lui	zero,0xffff9
800000c4:	00003a63          	0x3a63
	...
800000e0:	3130                	fld	fa2,96(a0)
800000e2:	3332                	fld	ft6,296(sp)
800000e4:	3534                	fld	fa3,104(a0)
800000e6:	3736                	fld	fa4,360(sp)
800000e8:	3938                	fld	fa4,112(a0)
800000ea:	6261                	lui	tp,0x18
800000ec:	66656463          	bltu	a0,t1,80000754 <__bss_end+0x3e0>
	...
80000100:	3130                	fld	fa2,96(a0)
80000102:	3332                	fld	ft6,296(sp)
80000104:	3534                	fld	fa3,104(a0)
80000106:	3736                	fld	fa4,360(sp)
80000108:	3938                	fld	fa4,112(a0)
8000010a:	6261                	lui	tp,0x18
8000010c:	66656463          	bltu	a0,t1,80000774 <__bss_end+0x400>
	...
80000120:	3130                	fld	fa2,96(a0)
80000122:	3332                	fld	ft6,296(sp)
80000124:	3534                	fld	fa3,104(a0)
80000126:	3736                	fld	fa4,360(sp)
80000128:	3938                	fld	fa4,112(a0)
8000012a:	6261                	lui	tp,0x18
8000012c:	66656463          	bltu	a0,t1,80000794 <__bss_end+0x420>
	...
80000140:	3130                	fld	fa2,96(a0)
80000142:	3332                	fld	ft6,296(sp)
80000144:	3534                	fld	fa3,104(a0)
80000146:	3736                	fld	fa4,360(sp)
80000148:	3938                	fld	fa4,112(a0)
8000014a:	6261                	lui	tp,0x18
8000014c:	66656463          	bltu	a0,t1,800007b4 <__bss_end+0x440>
	...
80000160:	6d20                	flw	fs0,88(a0)
80000162:	6162                	flw	ft2,24(sp)
80000164:	6164                	flw	fs1,68(a0)
80000166:	6464                	flw	fs1,76(s0)
80000168:	3a72                	fld	fs4,312(sp)
	...
8000017e:	0000                	unimp
80000180:	3130                	fld	fa2,96(a0)
80000182:	3332                	fld	ft6,296(sp)
80000184:	3534                	fld	fa3,104(a0)
80000186:	3736                	fld	fa4,360(sp)
80000188:	3938                	fld	fa4,112(a0)
8000018a:	6261                	lui	tp,0x18
8000018c:	66656463          	bltu	a0,t1,800007f4 <__bss_end+0x480>
	...
800001a0:	3130                	fld	fa2,96(a0)
800001a2:	3332                	fld	ft6,296(sp)
800001a4:	3534                	fld	fa3,104(a0)
800001a6:	3736                	fld	fa4,360(sp)
800001a8:	3938                	fld	fa4,112(a0)
800001aa:	6261                	lui	tp,0x18
800001ac:	66656463          	bltu	a0,t1,80000814 <__bss_end+0x4a0>
	...
800001c0:	3130                	fld	fa2,96(a0)
800001c2:	3332                	fld	ft6,296(sp)
800001c4:	3534                	fld	fa3,104(a0)
800001c6:	3736                	fld	fa4,360(sp)
800001c8:	3938                	fld	fa4,112(a0)
800001ca:	6261                	lui	tp,0x18
800001cc:	66656463          	bltu	a0,t1,80000834 <__bss_end+0x4c0>
	...
800001e0:	3130                	fld	fa2,96(a0)
800001e2:	3332                	fld	ft6,296(sp)
800001e4:	3534                	fld	fa3,104(a0)
800001e6:	3736                	fld	fa4,360(sp)
800001e8:	3938                	fld	fa4,112(a0)
800001ea:	6261                	lui	tp,0x18
800001ec:	66656463          	bltu	a0,t1,80000854 <__bss_end+0x4e0>
	...
80000200:	000a                	c.slli	zero,0x2
	...
8000021e:	0000                	unimp
80000220:	3130                	fld	fa2,96(a0)
80000222:	3332                	fld	ft6,296(sp)
80000224:	3534                	fld	fa3,104(a0)
80000226:	3736                	fld	fa4,360(sp)
80000228:	3938                	fld	fa4,112(a0)
8000022a:	6261                	lui	tp,0x18
8000022c:	66656463          	bltu	a0,t1,80000894 <__bss_end+0x520>
	...
80000240:	3130                	fld	fa2,96(a0)
80000242:	3332                	fld	ft6,296(sp)
80000244:	3534                	fld	fa3,104(a0)
80000246:	3736                	fld	fa4,360(sp)
80000248:	3938                	fld	fa4,112(a0)
8000024a:	6261                	lui	tp,0x18
8000024c:	66656463          	bltu	a0,t1,800008b4 <__bss_end+0x540>
	...
80000260:	3130                	fld	fa2,96(a0)
80000262:	3332                	fld	ft6,296(sp)
80000264:	3534                	fld	fa3,104(a0)
80000266:	3736                	fld	fa4,360(sp)
80000268:	3938                	fld	fa4,112(a0)
8000026a:	6261                	lui	tp,0x18
8000026c:	66656463          	bltu	a0,t1,800008d4 <__bss_end+0x560>
	...
80000280:	3130                	fld	fa2,96(a0)
80000282:	3332                	fld	ft6,296(sp)
80000284:	3534                	fld	fa3,104(a0)
80000286:	3736                	fld	fa4,360(sp)
80000288:	3938                	fld	fa4,112(a0)
8000028a:	6261                	lui	tp,0x18
8000028c:	66656463          	bltu	a0,t1,800008f4 <__bss_end+0x580>
	...
800002a0:	203a                	fld	ft0,392(sp)
	...
800002be:	0000                	unimp
800002c0:	3130                	fld	fa2,96(a0)
800002c2:	3332                	fld	ft6,296(sp)
800002c4:	3534                	fld	fa3,104(a0)
800002c6:	3736                	fld	fa4,360(sp)
800002c8:	3938                	fld	fa4,112(a0)
800002ca:	6261                	lui	tp,0x18
800002cc:	66656463          	bltu	a0,t1,80000934 <__bss_end+0x5c0>
	...
800002e0:	3130                	fld	fa2,96(a0)
800002e2:	3332                	fld	ft6,296(sp)
800002e4:	3534                	fld	fa3,104(a0)
800002e6:	3736                	fld	fa4,360(sp)
800002e8:	3938                	fld	fa4,112(a0)
800002ea:	6261                	lui	tp,0x18
800002ec:	66656463          	bltu	a0,t1,80000954 <__bss_end+0x5e0>
	...
80000300:	3130                	fld	fa2,96(a0)
80000302:	3332                	fld	ft6,296(sp)
80000304:	3534                	fld	fa3,104(a0)
80000306:	3736                	fld	fa4,360(sp)
80000308:	3938                	fld	fa4,112(a0)
8000030a:	6261                	lui	tp,0x18
8000030c:	66656463          	bltu	a0,t1,80000974 <__bss_end+0x600>
	...
80000320:	3130                	fld	fa2,96(a0)
80000322:	3332                	fld	ft6,296(sp)
80000324:	3534                	fld	fa3,104(a0)
80000326:	3736                	fld	fa4,360(sp)
80000328:	3938                	fld	fa4,112(a0)
8000032a:	6261                	lui	tp,0x18
8000032c:	66656463          	bltu	a0,t1,80000994 <__bss_end+0x620>
	...
80000340:	000a                	c.slli	zero,0x2
	...
8000034e:	0000                	unimp
80000350:	6261                	lui	tp,0x18
80000352:	6974726f          	jal	tp,800481e8 <stack_top+0x281e8>
80000356:	676e                	flw	fa4,216(sp)
80000358:	2e2e                	fld	ft8,200(sp)
8000035a:	0a2e                	slli	s4,s4,0xb
8000035c:	6d305b1b          	0x6d305b1b
	...

80000370 <hello_str>:
80000370:	5352                	lw	t1,52(sp)
80000372:	0044                	addi	s1,sp,4

Disassembly of section .comment:

00002300 <.comment>:
    2300:	3a434347          	fmsub.d	ft6,ft6,ft4,ft7,rmm
    2304:	2820                	fld	fs0,80(s0)
    2306:	29554e47          	fmsub.s	ft8,fa0,fs5,ft5,rmm
    230a:	3120                	fld	fs0,96(a0)
    230c:	2e31                	jal	2628 <__rodata_end+0x69c>
    230e:	2e31                	jal	262a <__rodata_end+0x69e>
    2310:	0030                	addi	a2,sp,8

Disassembly of section .riscv.attributes:

00000000 <.riscv.attributes>:
   0:	2441                	jal	280 <_start-0xd80>
   2:	0000                	unimp
   4:	7200                	flw	fs0,32(a2)
   6:	7369                	lui	t1,0xffffa
   8:	01007663          	bgeu	zero,a6,14 <_start-0xfec>
   c:	001a                	c.slli	zero,0x6
   e:	0000                	unimp
  10:	1004                	addi	s1,sp,32
  12:	7205                	lui	tp,0xfffe1
  14:	3376                	fld	ft6,376(sp)
  16:	6932                	flw	fs2,12(sp)
  18:	7032                	flw	ft0,44(sp)
  1a:	5f30                	lw	a2,120(a4)
  1c:	326d                	jal	fffff9c6 <stack_top+0x7ffdf9c6>
  1e:	3070                	fld	fa2,224(s0)
  20:	0800                	addi	s0,sp,16
  22:	0a01                	addi	s4,s4,0
  24:	0b              	Address 0x0000000000000024 is out of bounds.


Disassembly of section .debug_line:

00000000 <.debug_line>:
   0:	0354                	addi	a3,sp,388
   2:	0000                	unimp
   4:	0005                	c.nop	1
   6:	0004                	0x4
   8:	002a                	c.slli	zero,0xa
   a:	0000                	unimp
   c:	0101                	addi	sp,sp,0
   e:	fb01                	bnez	a4,ffffff1e <stack_top+0x7ffdff1e>
  10:	0d0e                	slli	s10,s10,0x3
  12:	0100                	addi	s0,sp,128
  14:	0101                	addi	sp,sp,0
  16:	0001                	nop
  18:	0000                	unimp
  1a:	0001                	nop
  1c:	0100                	addi	s0,sp,128
  1e:	0101                	addi	sp,sp,0
  20:	011f 0000 0000      	0x11f
  26:	0102                	c.slli64	sp
  28:	021f 020f 005d      	0x5d020f021f
  2e:	0000                	unimp
  30:	5d00                	lw	s0,56(a0)
  32:	0000                	unimp
  34:	0000                	unimp
  36:	0500                	addi	s0,sp,640
  38:	0002                	c.slli64	zero
  3a:	0010                	0x10
  3c:	0300                	addi	s0,sp,384
  3e:	03030113          	addi	sp,t1,48 # ffffa030 <stack_top+0x7ffda030>
  42:	0409                	addi	s0,s0,2
  44:	0100                	addi	s0,sp,128
  46:	04090303          	lb	t1,64(s2)
  4a:	0100                	addi	s0,sp,128
  4c:	04090103          	lb	sp,64(s2)
  50:	0100                	addi	s0,sp,128
  52:	04090403          	lb	s0,64(s2)
  56:	0100                	addi	s0,sp,128
  58:	08090103          	lb	sp,128(s2)
  5c:	0100                	addi	s0,sp,128
  5e:	04090203          	lb	tp,64(s2)
  62:	0100                	addi	s0,sp,128
  64:	04090103          	lb	sp,64(s2)
  68:	0100                	addi	s0,sp,128
  6a:	04090303          	lb	t1,64(s2)
  6e:	0100                	addi	s0,sp,128
  70:	04090103          	lb	sp,64(s2)
  74:	0100                	addi	s0,sp,128
  76:	04090103          	lb	sp,64(s2)
  7a:	0100                	addi	s0,sp,128
  7c:	04090103          	lb	sp,64(s2)
  80:	0100                	addi	s0,sp,128
  82:	04090103          	lb	sp,64(s2)
  86:	0100                	addi	s0,sp,128
  88:	04090103          	lb	sp,64(s2)
  8c:	0100                	addi	s0,sp,128
  8e:	04090103          	lb	sp,64(s2)
  92:	0100                	addi	s0,sp,128
  94:	04090103          	lb	sp,64(s2)
  98:	0100                	addi	s0,sp,128
  9a:	04090103          	lb	sp,64(s2)
  9e:	0100                	addi	s0,sp,128
  a0:	04090103          	lb	sp,64(s2)
  a4:	0100                	addi	s0,sp,128
  a6:	04090103          	lb	sp,64(s2)
  aa:	0100                	addi	s0,sp,128
  ac:	04090103          	lb	sp,64(s2)
  b0:	0100                	addi	s0,sp,128
  b2:	04090103          	lb	sp,64(s2)
  b6:	0100                	addi	s0,sp,128
  b8:	04090103          	lb	sp,64(s2)
  bc:	0100                	addi	s0,sp,128
  be:	04090103          	lb	sp,64(s2)
  c2:	0100                	addi	s0,sp,128
  c4:	04090103          	lb	sp,64(s2)
  c8:	0100                	addi	s0,sp,128
  ca:	04090103          	lb	sp,64(s2)
  ce:	0100                	addi	s0,sp,128
  d0:	04090103          	lb	sp,64(s2)
  d4:	0100                	addi	s0,sp,128
  d6:	04090103          	lb	sp,64(s2)
  da:	0100                	addi	s0,sp,128
  dc:	04090103          	lb	sp,64(s2)
  e0:	0100                	addi	s0,sp,128
  e2:	04090103          	lb	sp,64(s2)
  e6:	0100                	addi	s0,sp,128
  e8:	04090103          	lb	sp,64(s2)
  ec:	0100                	addi	s0,sp,128
  ee:	04090103          	lb	sp,64(s2)
  f2:	0100                	addi	s0,sp,128
  f4:	04090103          	lb	sp,64(s2)
  f8:	0100                	addi	s0,sp,128
  fa:	04090103          	lb	sp,64(s2)
  fe:	0100                	addi	s0,sp,128
 100:	04090103          	lb	sp,64(s2)
 104:	0100                	addi	s0,sp,128
 106:	04090103          	lb	sp,64(s2)
 10a:	0100                	addi	s0,sp,128
 10c:	04090103          	lb	sp,64(s2)
 110:	0100                	addi	s0,sp,128
 112:	04090103          	lb	sp,64(s2)
 116:	0100                	addi	s0,sp,128
 118:	04090103          	lb	sp,64(s2)
 11c:	0100                	addi	s0,sp,128
 11e:	04090103          	lb	sp,64(s2)
 122:	0100                	addi	s0,sp,128
 124:	04090103          	lb	sp,64(s2)
 128:	0100                	addi	s0,sp,128
 12a:	04090203          	lb	tp,64(s2)
 12e:	0100                	addi	s0,sp,128
 130:	04090603          	lb	a2,64(s2)
 134:	0100                	addi	s0,sp,128
 136:	04090103          	lb	sp,64(s2)
 13a:	0100                	addi	s0,sp,128
 13c:	04090103          	lb	sp,64(s2)
 140:	0100                	addi	s0,sp,128
 142:	04090103          	lb	sp,64(s2)
 146:	0100                	addi	s0,sp,128
 148:	04090103          	lb	sp,64(s2)
 14c:	0100                	addi	s0,sp,128
 14e:	04090103          	lb	sp,64(s2)
 152:	0100                	addi	s0,sp,128
 154:	04090103          	lb	sp,64(s2)
 158:	0100                	addi	s0,sp,128
 15a:	04090103          	lb	sp,64(s2)
 15e:	0100                	addi	s0,sp,128
 160:	04090103          	lb	sp,64(s2)
 164:	0100                	addi	s0,sp,128
 166:	04090103          	lb	sp,64(s2)
 16a:	0100                	addi	s0,sp,128
 16c:	04090103          	lb	sp,64(s2)
 170:	0100                	addi	s0,sp,128
 172:	04090103          	lb	sp,64(s2)
 176:	0100                	addi	s0,sp,128
 178:	04090103          	lb	sp,64(s2)
 17c:	0100                	addi	s0,sp,128
 17e:	04090103          	lb	sp,64(s2)
 182:	0100                	addi	s0,sp,128
 184:	04090103          	lb	sp,64(s2)
 188:	0100                	addi	s0,sp,128
 18a:	04090103          	lb	sp,64(s2)
 18e:	0100                	addi	s0,sp,128
 190:	04090103          	lb	sp,64(s2)
 194:	0100                	addi	s0,sp,128
 196:	04090103          	lb	sp,64(s2)
 19a:	0100                	addi	s0,sp,128
 19c:	04090103          	lb	sp,64(s2)
 1a0:	0100                	addi	s0,sp,128
 1a2:	04090103          	lb	sp,64(s2)
 1a6:	0100                	addi	s0,sp,128
 1a8:	04090103          	lb	sp,64(s2)
 1ac:	0100                	addi	s0,sp,128
 1ae:	04090103          	lb	sp,64(s2)
 1b2:	0100                	addi	s0,sp,128
 1b4:	04090103          	lb	sp,64(s2)
 1b8:	0100                	addi	s0,sp,128
 1ba:	04090103          	lb	sp,64(s2)
 1be:	0100                	addi	s0,sp,128
 1c0:	04090103          	lb	sp,64(s2)
 1c4:	0100                	addi	s0,sp,128
 1c6:	04090103          	lb	sp,64(s2)
 1ca:	0100                	addi	s0,sp,128
 1cc:	04090103          	lb	sp,64(s2)
 1d0:	0100                	addi	s0,sp,128
 1d2:	04090103          	lb	sp,64(s2)
 1d6:	0100                	addi	s0,sp,128
 1d8:	04090103          	lb	sp,64(s2)
 1dc:	0100                	addi	s0,sp,128
 1de:	04090103          	lb	sp,64(s2)
 1e2:	0100                	addi	s0,sp,128
 1e4:	04090103          	lb	sp,64(s2)
 1e8:	0100                	addi	s0,sp,128
 1ea:	04090103          	lb	sp,64(s2)
 1ee:	0100                	addi	s0,sp,128
 1f0:	04090103          	lb	sp,64(s2)
 1f4:	0100                	addi	s0,sp,128
 1f6:	04090303          	lb	t1,64(s2)
 1fa:	0100                	addi	s0,sp,128
 1fc:	24090203          	lb	tp,576(s2)
 200:	0100                	addi	s0,sp,128
 202:	24090103          	lb	sp,576(s2)
 206:	0100                	addi	s0,sp,128
 208:	04090103          	lb	sp,64(s2)
 20c:	0100                	addi	s0,sp,128
 20e:	58090203          	lb	tp,1408(s2)
 212:	0101                	addi	sp,sp,0
 214:	24090103          	lb	sp,576(s2)
 218:	0100                	addi	s0,sp,128
 21a:	04090103          	lb	sp,64(s2)
 21e:	0100                	addi	s0,sp,128
 220:	58090203          	lb	tp,1408(s2)
 224:	0101                	addi	sp,sp,0
 226:	24090103          	lb	sp,576(s2)
 22a:	0100                	addi	s0,sp,128
 22c:	04090103          	lb	sp,64(s2)
 230:	0100                	addi	s0,sp,128
 232:	58090103          	lb	sp,1408(s2)
 236:	0101                	addi	sp,sp,0
 238:	24090203          	lb	tp,576(s2)
 23c:	0100                	addi	s0,sp,128
 23e:	04090103          	lb	sp,64(s2)
 242:	0100                	addi	s0,sp,128
 244:	04090203          	lb	tp,64(s2)
 248:	0100                	addi	s0,sp,128
 24a:	04090103          	lb	sp,64(s2)
 24e:	0100                	addi	s0,sp,128
 250:	58090103          	lb	sp,1408(s2)
 254:	0101                	addi	sp,sp,0
 256:	24090103          	lb	sp,576(s2)
 25a:	0100                	addi	s0,sp,128
 25c:	04090103          	lb	sp,64(s2)
 260:	0100                	addi	s0,sp,128
 262:	04090103          	lb	sp,64(s2)
 266:	0100                	addi	s0,sp,128
 268:	58090103          	lb	sp,1408(s2)
 26c:	0101                	addi	sp,sp,0
 26e:	24090103          	lb	sp,576(s2)
 272:	0100                	addi	s0,sp,128
 274:	04090103          	lb	sp,64(s2)
 278:	0100                	addi	s0,sp,128
 27a:	04090103          	lb	sp,64(s2)
 27e:	0100                	addi	s0,sp,128
 280:	24090303          	lb	t1,576(s2)
 284:	0100                	addi	s0,sp,128
 286:	04090203          	lb	tp,64(s2)
 28a:	0100                	addi	s0,sp,128
 28c:	04090103          	lb	sp,64(s2)
 290:	0100                	addi	s0,sp,128
 292:	04090103          	lb	sp,64(s2)
 296:	0100                	addi	s0,sp,128
 298:	04090103          	lb	sp,64(s2)
 29c:	0100                	addi	s0,sp,128
 29e:	04090103          	lb	sp,64(s2)
 2a2:	0100                	addi	s0,sp,128
 2a4:	04090103          	lb	sp,64(s2)
 2a8:	0100                	addi	s0,sp,128
 2aa:	04090103          	lb	sp,64(s2)
 2ae:	0100                	addi	s0,sp,128
 2b0:	04090103          	lb	sp,64(s2)
 2b4:	0100                	addi	s0,sp,128
 2b6:	04090103          	lb	sp,64(s2)
 2ba:	0100                	addi	s0,sp,128
 2bc:	04090103          	lb	sp,64(s2)
 2c0:	0100                	addi	s0,sp,128
 2c2:	04090103          	lb	sp,64(s2)
 2c6:	0100                	addi	s0,sp,128
 2c8:	04090103          	lb	sp,64(s2)
 2cc:	0100                	addi	s0,sp,128
 2ce:	04090103          	lb	sp,64(s2)
 2d2:	0100                	addi	s0,sp,128
 2d4:	04090103          	lb	sp,64(s2)
 2d8:	0100                	addi	s0,sp,128
 2da:	04090103          	lb	sp,64(s2)
 2de:	0100                	addi	s0,sp,128
 2e0:	04090103          	lb	sp,64(s2)
 2e4:	0100                	addi	s0,sp,128
 2e6:	04090103          	lb	sp,64(s2)
 2ea:	0100                	addi	s0,sp,128
 2ec:	04090103          	lb	sp,64(s2)
 2f0:	0100                	addi	s0,sp,128
 2f2:	04090103          	lb	sp,64(s2)
 2f6:	0100                	addi	s0,sp,128
 2f8:	04090103          	lb	sp,64(s2)
 2fc:	0100                	addi	s0,sp,128
 2fe:	04090103          	lb	sp,64(s2)
 302:	0100                	addi	s0,sp,128
 304:	04090103          	lb	sp,64(s2)
 308:	0100                	addi	s0,sp,128
 30a:	04090103          	lb	sp,64(s2)
 30e:	0100                	addi	s0,sp,128
 310:	04090103          	lb	sp,64(s2)
 314:	0100                	addi	s0,sp,128
 316:	04090103          	lb	sp,64(s2)
 31a:	0100                	addi	s0,sp,128
 31c:	04090103          	lb	sp,64(s2)
 320:	0100                	addi	s0,sp,128
 322:	04090103          	lb	sp,64(s2)
 326:	0100                	addi	s0,sp,128
 328:	04090103          	lb	sp,64(s2)
 32c:	0100                	addi	s0,sp,128
 32e:	04090103          	lb	sp,64(s2)
 332:	0100                	addi	s0,sp,128
 334:	04090103          	lb	sp,64(s2)
 338:	0100                	addi	s0,sp,128
 33a:	04090103          	lb	sp,64(s2)
 33e:	0100                	addi	s0,sp,128
 340:	04090103          	lb	sp,64(s2)
 344:	0100                	addi	s0,sp,128
 346:	04090103          	lb	sp,64(s2)
 34a:	0100                	addi	s0,sp,128
 34c:	04090203          	lb	tp,64(s2)
 350:	0100                	addi	s0,sp,128
 352:	0409                	addi	s0,s0,2
 354:	0000                	unimp
 356:	0101                	addi	sp,sp,0
 358:	0155                	addi	sp,sp,21
 35a:	0000                	unimp
 35c:	0005                	c.nop	1
 35e:	0004                	0x4
 360:	003c                	addi	a5,sp,8
 362:	0000                	unimp
 364:	0101                	addi	sp,sp,0
 366:	fb01                	bnez	a4,276 <_start-0xd8a>
 368:	0d0e                	slli	s10,s10,0x3
 36a:	0100                	addi	s0,sp,128
 36c:	0101                	addi	sp,sp,0
 36e:	0001                	nop
 370:	0000                	unimp
 372:	0001                	nop
 374:	0100                	addi	s0,sp,128
 376:	0101                	addi	sp,sp,0
 378:	031f 0000 0000      	0x31f
 37e:	00c6                	slli	ra,ra,0x11
 380:	0000                	unimp
 382:	0118                	addi	a4,sp,128
 384:	0000                	unimp
 386:	0102                	c.slli64	sp
 388:	021f 040f 0067      	0x67040f021f
 38e:	0000                	unimp
 390:	b900                	fsd	fs0,48(a0)
 392:	0000                	unimp
 394:	0100                	addi	s0,sp,128
 396:	0151                	addi	sp,sp,20
 398:	0000                	unimp
 39a:	5e02                	lw	t3,32(sp)
 39c:	0001                	nop
 39e:	0200                	addi	s0,sp,256
 3a0:	0e05                	addi	t3,t3,1
 3a2:	0500                	addi	s0,sp,640
 3a4:	bc02                	fsd	ft0,56(sp)
 3a6:	0019                	c.nop	6
 3a8:	0300                	addi	s0,sp,384
 3aa:	011d                	addi	sp,sp,7
 3ac:	0505                	addi	a0,a0,1
 3ae:	00090403          	lb	s0,0(s2)
 3b2:	0100                	addi	s0,sp,128
 3b4:	0c05                	addi	s8,s8,1
 3b6:	0306                	slli	t1,t1,0x1
 3b8:	0900                	addi	s0,sp,144
 3ba:	0000                	unimp
 3bc:	0501                	addi	a0,a0,0
 3be:	032c                	addi	a1,sp,392
 3c0:	0901                	addi	s2,s2,0
 3c2:	0008                	0x8
 3c4:	0501                	addi	a0,a0,0
 3c6:	030c                	addi	a1,sp,384
 3c8:	0900                	addi	s0,sp,144
 3ca:	0004                	0x4
 3cc:	0301                	addi	t1,t1,0
 3ce:	097f                	0x97f
 3d0:	0004                	0x4
 3d2:	0501                	addi	a0,a0,0
 3d4:	032c                	addi	a1,sp,392
 3d6:	0901                	addi	s2,s2,0
 3d8:	0008                	0x8
 3da:	0501                	addi	a0,a0,0
 3dc:	030c                	addi	a1,sp,384
 3de:	0900                	addi	s0,sp,144
 3e0:	0004                	0x4
 3e2:	0301                	addi	t1,t1,0
 3e4:	097f                	0x97f
 3e6:	0004                	0x4
 3e8:	0501                	addi	a0,a0,0
 3ea:	0605                	addi	a2,a2,1
 3ec:	04090103          	lb	sp,64(s2)
 3f0:	0100                	addi	s0,sp,128
 3f2:	0c05                	addi	s8,s8,1
 3f4:	0306                	slli	t1,t1,0x1
 3f6:	0900                	addi	s0,sp,144
 3f8:	0000                	unimp
 3fa:	0501                	addi	a0,a0,0
 3fc:	0605                	addi	a2,a2,1
 3fe:	04090103          	lb	sp,64(s2)
 402:	0100                	addi	s0,sp,128
 404:	00096903          	0x96903
 408:	0100                	addi	s0,sp,128
 40a:	00090103          	lb	sp,0(s2)
 40e:	0100                	addi	s0,sp,128
 410:	00090203          	lb	tp,0(s2)
 414:	0100                	addi	s0,sp,128
 416:	0a05                	addi	s4,s4,1
 418:	00090003          	lb	zero,0(s2)
 41c:	0100                	addi	s0,sp,128
 41e:	1a05                	addi	s4,s4,-31
 420:	00090003          	lb	zero,0(s2)
 424:	0100                	addi	s0,sp,128
 426:	1105                	addi	sp,sp,-31
 428:	0306                	slli	t1,t1,0x1
 42a:	0901                	addi	s2,s2,0
 42c:	000c                	0xc
 42e:	0501                	addi	a0,a0,0
 430:	031a                	slli	t1,t1,0x6
 432:	097f                	0x97f
 434:	0004                	0x4
 436:	0501                	addi	a0,a0,0
 438:	0311                	addi	t1,t1,4
 43a:	0901                	addi	s2,s2,0
 43c:	0008                	0x8
 43e:	0501                	addi	a0,a0,0
 440:	0609                	addi	a2,a2,2
 442:	04090003          	lb	zero,64(s2)
 446:	0100                	addi	s0,sp,128
 448:	1605                	addi	a2,a2,-31
 44a:	0306                	slli	t1,t1,0x1
 44c:	0900                	addi	s0,sp,144
 44e:	0000                	unimp
 450:	0501                	addi	a0,a0,0
 452:	0311                	addi	t1,t1,4
 454:	0900                	addi	s0,sp,144
 456:	0004                	0x4
 458:	0501                	addi	a0,a0,0
 45a:	031a                	slli	t1,t1,0x6
 45c:	097f                	0x97f
 45e:	0004                	0x4
 460:	0501                	addi	a0,a0,0
 462:	0311                	addi	t1,t1,4
 464:	0901                	addi	s2,s2,0
 466:	0004                	0x4
 468:	0501                	addi	a0,a0,0
 46a:	0620                	addi	s0,sp,776
 46c:	04097f03          	0x4097f03
 470:	0100                	addi	s0,sp,128
 472:	1a05                	addi	s4,s4,-31
 474:	00090003          	lb	zero,0(s2)
 478:	0100                	addi	s0,sp,128
 47a:	04090803          	lb	a6,64(s2)
 47e:	0100                	addi	s0,sp,128
 480:	0905                	addi	s2,s2,1
 482:	0c090103          	lb	sp,192(s2)
 486:	0100                	addi	s0,sp,128
 488:	1005                	c.nop	-31
 48a:	0306                	slli	t1,t1,0x1
 48c:	0900                	addi	s0,sp,144
 48e:	0000                	unimp
 490:	0501                	addi	a0,a0,0
 492:	0620                	addi	s0,sp,776
 494:	04097f03          	0x4097f03
 498:	0100                	addi	s0,sp,128
 49a:	1a05                	addi	s4,s4,-31
 49c:	00090003          	lb	zero,0(s2)
 4a0:	0100                	addi	s0,sp,128
 4a2:	0105                	addi	sp,sp,1
 4a4:	0306                	slli	t1,t1,0x1
 4a6:	090e                	slli	s2,s2,0x3
 4a8:	0008                	0x8
 4aa:	0901                	addi	s2,s2,0
 4ac:	0004                	0x4
 4ae:	0100                	addi	s0,sp,128
 4b0:	4001                	c.li	zero,0
 4b2:	0008                	0x8
 4b4:	0500                	addi	s0,sp,640
 4b6:	0400                	addi	s0,sp,512
 4b8:	2a00                	fld	fs0,16(a2)
 4ba:	0000                	unimp
 4bc:	0100                	addi	s0,sp,128
 4be:	0101                	addi	sp,sp,0
 4c0:	000d0efb          	0xd0efb
 4c4:	0101                	addi	sp,sp,0
 4c6:	0101                	addi	sp,sp,0
 4c8:	0000                	unimp
 4ca:	0100                	addi	s0,sp,128
 4cc:	0000                	unimp
 4ce:	0101                	addi	sp,sp,0
 4d0:	1f01                	addi	t5,t5,-32
 4d2:	6701                	0x6701
 4d4:	0001                	nop
 4d6:	0200                	addi	s0,sp,256
 4d8:	1f01                	addi	t5,t5,-32
 4da:	0f02                	c.slli64	t5
 4dc:	be02                	fsd	ft0,312(sp)
 4de:	0001                	nop
 4e0:	0000                	unimp
 4e2:	01be                	slli	gp,gp,0xf
 4e4:	0000                	unimp
 4e6:	0500                	addi	s0,sp,640
 4e8:	0001                	nop
 4ea:	0205                	addi	tp,tp,1
 4ec:	1a30                	addi	a2,sp,312
 4ee:	0000                	unimp
 4f0:	051a                	slli	a0,a0,0x6
 4f2:	0305                	addi	t1,t1,1
 4f4:	0901                	addi	s2,s2,0
 4f6:	0000                	unimp
 4f8:	0301                	addi	t1,t1,0
 4fa:	0901                	addi	s2,s2,0
 4fc:	0000                	unimp
 4fe:	0501                	addi	a0,a0,0
 500:	0610                	addi	a2,sp,768
 502:	00090003          	lb	zero,0(s2)
 506:	0100                	addi	s0,sp,128
 508:	0905                	addi	s2,s2,1
 50a:	04090003          	lb	zero,64(s2)
 50e:	0100                	addi	s0,sp,128
 510:	0505                	addi	a0,a0,1
 512:	0306                	slli	t1,t1,0x1
 514:	0901                	addi	s2,s2,0
 516:	0004                	0x4
 518:	0501                	addi	a0,a0,0
 51a:	0609                	addi	a2,a2,2
 51c:	00090003          	lb	zero,0(s2)
 520:	0100                	addi	s0,sp,128
 522:	0505                	addi	a0,a0,1
 524:	0306                	slli	t1,t1,0x1
 526:	00040903          	lb	s2,0(s0) # 19000 <__rodata_end+0x17074>
 52a:	0501                	addi	a0,a0,0
 52c:	0609                	addi	a2,a2,2
 52e:	00090003          	lb	zero,0(s2)
 532:	0100                	addi	s0,sp,128
 534:	0105                	addi	sp,sp,1
 536:	04097a03          	0x4097a03
 53a:	0100                	addi	s0,sp,128
 53c:	0905                	addi	s2,s2,1
 53e:	04090603          	lb	a2,64(s2)
 542:	0100                	addi	s0,sp,128
 544:	1005                	c.nop	-31
 546:	04090003          	lb	zero,64(s2)
 54a:	0100                	addi	s0,sp,128
 54c:	0105                	addi	sp,sp,1
 54e:	04097a03          	0x4097a03
 552:	0100                	addi	s0,sp,128
 554:	0905                	addi	s2,s2,1
 556:	04090603          	lb	a2,64(s2)
 55a:	0100                	addi	s0,sp,128
 55c:	0105                	addi	sp,sp,1
 55e:	04097a03          	0x4097a03
 562:	0100                	addi	s0,sp,128
 564:	1005                	c.nop	-31
 566:	04090603          	lb	a2,64(s2)
 56a:	0100                	addi	s0,sp,128
 56c:	0105                	addi	sp,sp,1
 56e:	04097a03          	0x4097a03
 572:	0100                	addi	s0,sp,128
 574:	0905                	addi	s2,s2,1
 576:	00090603          	lb	a2,0(s2)
 57a:	0100                	addi	s0,sp,128
 57c:	1005                	c.nop	-31
 57e:	04090003          	lb	zero,64(s2)
 582:	0100                	addi	s0,sp,128
 584:	0905                	addi	s2,s2,1
 586:	04090003          	lb	zero,64(s2)
 58a:	0100                	addi	s0,sp,128
 58c:	1005                	c.nop	-31
 58e:	04090003          	lb	zero,64(s2)
 592:	0100                	addi	s0,sp,128
 594:	0505                	addi	a0,a0,1
 596:	0306                	slli	t1,t1,0x1
 598:	00080903          	lb	s2,0(a6) # ffff1000 <stack_top+0x7ffd1000>
 59c:	0501                	addi	a0,a0,0
 59e:	09000313          	li	t1,144
 5a2:	0000                	unimp
 5a4:	0501                	addi	a0,a0,0
 5a6:	0009                	c.nop	2
 5a8:	0402                	c.slli64	s0
 5aa:	09010303          	lb	t1,144(sp)
 5ae:	001c                	0x1c
 5b0:	0501                	addi	a0,a0,0
 5b2:	000e                	c.slli	zero,0x3
 5b4:	0402                	c.slli64	s0
 5b6:	00030603          	lb	a2,0(t1)
 5ba:	0009                	c.nop	2
 5bc:	0100                	addi	s0,sp,128
 5be:	1305                	addi	t1,t1,-31
 5c0:	0200                	addi	s0,sp,256
 5c2:	0304                	addi	s1,sp,384
 5c4:	04097f03          	0x4097f03
 5c8:	0100                	addi	s0,sp,128
 5ca:	0e05                	addi	t3,t3,1
 5cc:	0200                	addi	s0,sp,256
 5ce:	0304                	addi	s1,sp,384
 5d0:	08090103          	lb	sp,128(s2)
 5d4:	0100                	addi	s0,sp,128
 5d6:	1a05                	addi	s4,s4,-31
 5d8:	0200                	addi	s0,sp,256
 5da:	0304                	addi	s1,sp,384
 5dc:	0306                	slli	t1,t1,0x1
 5de:	097f                	0x97f
 5e0:	0004                	0x4
 5e2:	0501                	addi	a0,a0,0
 5e4:	04020013          	addi	zero,tp,64 # fffe1040 <stack_top+0x7ffc1040>
 5e8:	09000303          	lb	t1,144(zero) # 90 <_start-0xf70>
 5ec:	0000                	unimp
 5ee:	0301                	addi	t1,t1,0
 5f0:	0902                	c.slli64	s2
 5f2:	0004                	0x4
 5f4:	0501                	addi	a0,a0,0
 5f6:	0616                	slli	a2,a2,0x5
 5f8:	04090103          	lb	sp,64(s2)
 5fc:	0100                	addi	s0,sp,128
 5fe:	0905                	addi	s2,s2,1
 600:	0200                	addi	s0,sp,256
 602:	0304                	addi	s1,sp,384
 604:	0306                	slli	t1,t1,0x1
 606:	0900                	addi	s0,sp,144
 608:	0014                	0x14
 60a:	0501                	addi	a0,a0,0
 60c:	000e                	c.slli	zero,0x3
 60e:	0402                	c.slli64	s0
 610:	00030603          	lb	a2,0(t1)
 614:	0009                	c.nop	2
 616:	0100                	addi	s0,sp,128
 618:	1305                	addi	t1,t1,-31
 61a:	0200                	addi	s0,sp,256
 61c:	0304                	addi	s1,sp,384
 61e:	04097f03          	0x4097f03
 622:	0100                	addi	s0,sp,128
 624:	0e05                	addi	t3,t3,1
 626:	0200                	addi	s0,sp,256
 628:	0304                	addi	s1,sp,384
 62a:	08090103          	lb	sp,128(s2)
 62e:	0100                	addi	s0,sp,128
 630:	1a05                	addi	s4,s4,-31
 632:	0200                	addi	s0,sp,256
 634:	0304                	addi	s1,sp,384
 636:	0306                	slli	t1,t1,0x1
 638:	097f                	0x97f
 63a:	0004                	0x4
 63c:	0501                	addi	a0,a0,0
 63e:	04020013          	addi	zero,tp,64 # 40 <_start-0xfc0>
 642:	09000303          	lb	t1,144(zero) # 90 <_start-0xf70>
 646:	0000                	unimp
 648:	0301                	addi	t1,t1,0
 64a:	00040907          	0x40907
 64e:	0501                	addi	a0,a0,0
 650:	060e                	slli	a2,a2,0x3
 652:	18090303          	lb	t1,384(s2)
 656:	0100                	addi	s0,sp,128
 658:	1405                	addi	s0,s0,-31
 65a:	04097f03          	0x4097f03
 65e:	0100                	addi	s0,sp,128
 660:	0905                	addi	s2,s2,1
 662:	0306                	slli	t1,t1,0x1
 664:	00040907          	0x40907
 668:	0501                	addi	a0,a0,0
 66a:	060a                	slli	a2,a2,0x2
 66c:	00090003          	lb	zero,0(s2)
 670:	0100                	addi	s0,sp,128
 672:	1305                	addi	t1,t1,-31
 674:	0306                	slli	t1,t1,0x1
 676:	00040977          	0x40977
 67a:	0001                	nop
 67c:	0402                	c.slli64	s0
 67e:	0601                	addi	a2,a2,0
 680:	04090003          	lb	zero,64(s2)
 684:	0100                	addi	s0,sp,128
 686:	0905                	addi	s2,s2,1
 688:	0306                	slli	t1,t1,0x1
 68a:	0901                	addi	s2,s2,0
 68c:	0008                	0x8
 68e:	0501                	addi	a0,a0,0
 690:	030d                	addi	t1,t1,3
 692:	0901                	addi	s2,s2,0
 694:	0000                	unimp
 696:	0301                	addi	t1,t1,0
 698:	0901                	addi	s2,s2,0
 69a:	0000                	unimp
 69c:	0301                	addi	t1,t1,0
 69e:	00000903          	lb	s2,0(zero) # 0 <_start-0x1000>
 6a2:	0301                	addi	t1,t1,0
 6a4:	0901                	addi	s2,s2,0
 6a6:	0000                	unimp
 6a8:	0501                	addi	a0,a0,0
 6aa:	060e                	slli	a2,a2,0x3
 6ac:	00097a03          	0x97a03
 6b0:	0100                	addi	s0,sp,128
 6b2:	1605                	addi	a2,a2,-31
 6b4:	04090003          	lb	zero,64(s2)
 6b8:	0100                	addi	s0,sp,128
 6ba:	0e05                	addi	t3,t3,1
 6bc:	04090003          	lb	zero,64(s2)
 6c0:	0100                	addi	s0,sp,128
 6c2:	1605                	addi	a2,a2,-31
 6c4:	04090003          	lb	zero,64(s2)
 6c8:	0100                	addi	s0,sp,128
 6ca:	0e05                	addi	t3,t3,1
 6cc:	04090003          	lb	zero,64(s2)
 6d0:	0100                	addi	s0,sp,128
 6d2:	1605                	addi	a2,a2,-31
 6d4:	04090003          	lb	zero,64(s2)
 6d8:	0100                	addi	s0,sp,128
 6da:	0c05                	addi	s8,s8,1
 6dc:	04090003          	lb	zero,64(s2)
 6e0:	0100                	addi	s0,sp,128
 6e2:	0e05                	addi	t3,t3,1
 6e4:	04090603          	lb	a2,64(s2)
 6e8:	0100                	addi	s0,sp,128
 6ea:	1405                	addi	s0,s0,-31
 6ec:	04097b03          	0x4097b03
 6f0:	0100                	addi	s0,sp,128
 6f2:	0e05                	addi	t3,t3,1
 6f4:	04090503          	lb	a0,64(s2)
 6f8:	0100                	addi	s0,sp,128
 6fa:	0905                	addi	s2,s2,1
 6fc:	0306                	slli	t1,t1,0x1
 6fe:	0902                	c.slli64	s2
 700:	0004                	0x4
 702:	0501                	addi	a0,a0,0
 704:	060a                	slli	a2,a2,0x2
 706:	00090003          	lb	zero,0(s2)
 70a:	0100                	addi	s0,sp,128
 70c:	1305                	addi	t1,t1,-31
 70e:	0306                	slli	t1,t1,0x1
 710:	00040977          	0x40977
 714:	0501                	addi	a0,a0,0
 716:	030e                	slli	t1,t1,0x3
 718:	0916                	slli	s2,s2,0x5
 71a:	0004                	0x4
 71c:	0501                	addi	a0,a0,0
 71e:	0309                	addi	t1,t1,2
 720:	0901                	addi	s2,s2,0
 722:	0018                	0x18
 724:	0501                	addi	a0,a0,0
 726:	0610                	addi	a2,sp,768
 728:	00090003          	lb	zero,0(s2)
 72c:	0100                	addi	s0,sp,128
 72e:	0e05                	addi	t3,t3,1
 730:	04097f03          	0x4097f03
 734:	0100                	addi	s0,sp,128
 736:	1005                	c.nop	-31
 738:	08090103          	lb	sp,128(s2)
 73c:	0100                	addi	s0,sp,128
 73e:	0905                	addi	s2,s2,1
 740:	0306                	slli	t1,t1,0x1
 742:	0901                	addi	s2,s2,0
 744:	0004                	0x4
 746:	0301                	addi	t1,t1,0
 748:	0901                	addi	s2,s2,0
 74a:	0000                	unimp
 74c:	0501                	addi	a0,a0,0
 74e:	030e                	slli	t1,t1,0x3
 750:	097d                	addi	s2,s2,31
 752:	0000                	unimp
 754:	0501                	addi	a0,a0,0
 756:	0601                	addi	a2,a2,0
 758:	04090503          	lb	a0,64(s2)
 75c:	0100                	addi	s0,sp,128
 75e:	0e05                	addi	t3,t3,1
 760:	0306                	slli	t1,t1,0x1
 762:	00140973          	0x140973
 766:	0601                	addi	a2,a2,0
 768:	0c097903          	0xc097903
 76c:	0100                	addi	s0,sp,128
 76e:	0905                	addi	s2,s2,1
 770:	0306                	slli	t1,t1,0x1
 772:	0908                	addi	a0,sp,144
 774:	0004                	0x4
 776:	0501                	addi	a0,a0,0
 778:	0610                	addi	a2,sp,768
 77a:	00090003          	lb	zero,0(s2)
 77e:	0100                	addi	s0,sp,128
 780:	0e05                	addi	t3,t3,1
 782:	08097f03          	0x8097f03
 786:	0100                	addi	s0,sp,128
 788:	1005                	c.nop	-31
 78a:	04090103          	lb	sp,64(s2)
 78e:	0100                	addi	s0,sp,128
 790:	0905                	addi	s2,s2,1
 792:	0306                	slli	t1,t1,0x1
 794:	0901                	addi	s2,s2,0
 796:	0004                	0x4
 798:	0501                	addi	a0,a0,0
 79a:	060a                	slli	a2,a2,0x2
 79c:	00090003          	lb	zero,0(s2)
 7a0:	0100                	addi	s0,sp,128
 7a2:	0905                	addi	s2,s2,1
 7a4:	0306                	slli	t1,t1,0x1
 7a6:	0901                	addi	s2,s2,0
 7a8:	0004                	0x4
 7aa:	0501                	addi	a0,a0,0
 7ac:	030e                	slli	t1,t1,0x3
 7ae:	097d                	addi	s2,s2,31
 7b0:	0000                	unimp
 7b2:	0501                	addi	a0,a0,0
 7b4:	060a                	slli	a2,a2,0x2
 7b6:	0c090303          	lb	t1,192(s2)
 7ba:	0100                	addi	s0,sp,128
 7bc:	1305                	addi	t1,t1,-31
 7be:	0306                	slli	t1,t1,0x1
 7c0:	0968                	addi	a0,sp,156
 7c2:	0014                	0x14
 7c4:	0501                	addi	a0,a0,0
 7c6:	05030607          	0x5030607
 7ca:	0409                	addi	s0,s0,2
 7cc:	0100                	addi	s0,sp,128
 7ce:	0e05                	addi	t3,t3,1
 7d0:	0306                	slli	t1,t1,0x1
 7d2:	0910                	addi	a2,sp,144
 7d4:	0004                	0x4
 7d6:	0501                	addi	a0,a0,0
 7d8:	70030607          	0x70030607
 7dc:	0409                	addi	s0,s0,2
 7de:	0100                	addi	s0,sp,128
 7e0:	04097f03          	0x4097f03
 7e4:	0100                	addi	s0,sp,128
 7e6:	0605                	addi	a2,a2,1
 7e8:	0306                	slli	t1,t1,0x1
 7ea:	0922                	slli	s2,s2,0x8
 7ec:	0008                	0x8
 7ee:	0501                	addi	a0,a0,0
 7f0:	0309                	addi	t1,t1,2
 7f2:	0905                	addi	s2,s2,1
 7f4:	0000                	unimp
 7f6:	0501                	addi	a0,a0,0
 7f8:	0606                	slli	a2,a2,0x1
 7fa:	00097b03          	0x97b03
 7fe:	0100                	addi	s0,sp,128
 800:	1805                	addi	a6,a6,-31
 802:	04090503          	lb	a0,64(s2)
 806:	0100                	addi	s0,sp,128
 808:	0605                	addi	a2,a2,1
 80a:	04097b03          	0x4097b03
 80e:	0100                	addi	s0,sp,128
 810:	1d05                	addi	s10,s10,-31
 812:	04090503          	lb	a0,64(s2)
 816:	0100                	addi	s0,sp,128
 818:	0605                	addi	a2,a2,1
 81a:	04097b03          	0x4097b03
 81e:	0100                	addi	s0,sp,128
 820:	0d05                	addi	s10,s10,1
 822:	20090503          	lb	a0,512(s2)
 826:	0100                	addi	s0,sp,128
 828:	0905                	addi	s2,s2,1
 82a:	0306                	slli	t1,t1,0x1
 82c:	00040903          	lb	s2,0(s0)
 830:	0501                	addi	a0,a0,0
 832:	0606                	slli	a2,a2,0x1
 834:	00097803          	0x97803
 838:	0100                	addi	s0,sp,128
 83a:	0505                	addi	a0,a0,1
 83c:	0306                	slli	t1,t1,0x1
 83e:	0902                	c.slli64	s2
 840:	000c                	0xc
 842:	0501                	addi	a0,a0,0
 844:	0608                	addi	a0,sp,768
 846:	00090003          	lb	zero,0(s2)
 84a:	0100                	addi	s0,sp,128
 84c:	0905                	addi	s2,s2,1
 84e:	0306                	slli	t1,t1,0x1
 850:	00040907          	0x40907
 854:	0501                	addi	a0,a0,0
 856:	0305                	addi	t1,t1,1
 858:	0979                	addi	s2,s2,30
 85a:	0004                	0x4
 85c:	0501                	addi	a0,a0,0
 85e:	0608                	addi	a0,sp,768
 860:	00090003          	lb	zero,0(s2)
 864:	0100                	addi	s0,sp,128
 866:	0905                	addi	s2,s2,1
 868:	0306                	slli	t1,t1,0x1
 86a:	0909                	addi	s2,s2,2
 86c:	0004                	0x4
 86e:	0501                	addi	a0,a0,0
 870:	0601                	addi	a2,a2,0
 872:	04090203          	lb	tp,64(s2)
 876:	0100                	addi	s0,sp,128
 878:	0905                	addi	s2,s2,1
 87a:	18097e03          	0x18097e03
 87e:	0100                	addi	s0,sp,128
 880:	0105                	addi	sp,sp,1
 882:	08090203          	lb	tp,128(s2)
 886:	0100                	addi	s0,sp,128
 888:	0905                	addi	s2,s2,1
 88a:	08097e03          	0x8097e03
 88e:	0100                	addi	s0,sp,128
 890:	0105                	addi	sp,sp,1
 892:	04090203          	lb	tp,64(s2)
 896:	0100                	addi	s0,sp,128
 898:	0905                	addi	s2,s2,1
 89a:	08097e03          	0x8097e03
 89e:	0100                	addi	s0,sp,128
 8a0:	0306                	slli	t1,t1,0x1
 8a2:	097a                	slli	s2,s2,0x1e
 8a4:	0004                	0x4
 8a6:	0501                	addi	a0,a0,0
 8a8:	061d                	addi	a2,a2,7
 8aa:	00090003          	lb	zero,0(s2)
 8ae:	0100                	addi	s0,sp,128
 8b0:	0d05                	addi	s10,s10,1
 8b2:	04090003          	lb	zero,64(s2)
 8b6:	0100                	addi	s0,sp,128
 8b8:	0905                	addi	s2,s2,1
 8ba:	0306                	slli	t1,t1,0x1
 8bc:	00040903          	lb	s2,0(s0)
 8c0:	0501                	addi	a0,a0,0
 8c2:	0305                	addi	t1,t1,1
 8c4:	097a                	slli	s2,s2,0x1e
 8c6:	0000                	unimp
 8c8:	0501                	addi	a0,a0,0
 8ca:	0608                	addi	a0,sp,768
 8cc:	00090003          	lb	zero,0(s2)
 8d0:	0100                	addi	s0,sp,128
 8d2:	0905                	addi	s2,s2,1
 8d4:	0306                	slli	t1,t1,0x1
 8d6:	00040907          	0x40907
 8da:	0501                	addi	a0,a0,0
 8dc:	0305                	addi	t1,t1,1
 8de:	0979                	addi	s2,s2,30
 8e0:	0004                	0x4
 8e2:	0501                	addi	a0,a0,0
 8e4:	0608                	addi	a0,sp,768
 8e6:	00090003          	lb	zero,0(s2)
 8ea:	0100                	addi	s0,sp,128
 8ec:	0905                	addi	s2,s2,1
 8ee:	0306                	slli	t1,t1,0x1
 8f0:	0909                	addi	s2,s2,2
 8f2:	0004                	0x4
 8f4:	0601                	addi	a2,a2,0
 8f6:	10097e03          	0x10097e03
 8fa:	0100                	addi	s0,sp,128
 8fc:	04090203          	lb	tp,64(s2)
 900:	0100                	addi	s0,sp,128
 902:	0306                	slli	t1,t1,0x1
 904:	097e                	slli	s2,s2,0x1f
 906:	0004                	0x4
 908:	0501                	addi	a0,a0,0
 90a:	0305                	addi	t1,t1,1
 90c:	0979                	addi	s2,s2,30
 90e:	0000                	unimp
 910:	0501                	addi	a0,a0,0
 912:	0608                	addi	a0,sp,768
 914:	00090003          	lb	zero,0(s2)
 918:	0100                	addi	s0,sp,128
 91a:	0905                	addi	s2,s2,1
 91c:	0306                	slli	t1,t1,0x1
 91e:	00040903          	lb	s2,0(s0)
 922:	0501                	addi	a0,a0,0
 924:	0618                	addi	a4,sp,768
 926:	00090003          	lb	zero,0(s2)
 92a:	0100                	addi	s0,sp,128
 92c:	1d05                	addi	s10,s10,-31
 92e:	04090003          	lb	zero,64(s2)
 932:	0100                	addi	s0,sp,128
 934:	0d05                	addi	s10,s10,1
 936:	04090003          	lb	zero,64(s2)
 93a:	0100                	addi	s0,sp,128
 93c:	0905                	addi	s2,s2,1
 93e:	0306                	slli	t1,t1,0x1
 940:	00040903          	lb	s2,0(s0)
 944:	0501                	addi	a0,a0,0
 946:	0305                	addi	t1,t1,1
 948:	097a                	slli	s2,s2,0x1e
 94a:	0000                	unimp
 94c:	0501                	addi	a0,a0,0
 94e:	0608                	addi	a0,sp,768
 950:	00090003          	lb	zero,0(s2)
 954:	0100                	addi	s0,sp,128
 956:	0905                	addi	s2,s2,1
 958:	0306                	slli	t1,t1,0x1
 95a:	00040907          	0x40907
 95e:	0501                	addi	a0,a0,0
 960:	0305                	addi	t1,t1,1
 962:	0979                	addi	s2,s2,30
 964:	0004                	0x4
 966:	0501                	addi	a0,a0,0
 968:	0608                	addi	a0,sp,768
 96a:	00090003          	lb	zero,0(s2)
 96e:	0100                	addi	s0,sp,128
 970:	0905                	addi	s2,s2,1
 972:	0306                	slli	t1,t1,0x1
 974:	0909                	addi	s2,s2,2
 976:	0004                	0x4
 978:	0301                	addi	t1,t1,0
 97a:	097a                	slli	s2,s2,0x1e
 97c:	0018                	0x18
 97e:	0501                	addi	a0,a0,0
 980:	061d                	addi	a2,a2,7
 982:	00090003          	lb	zero,0(s2)
 986:	0100                	addi	s0,sp,128
 988:	0d05                	addi	s10,s10,1
 98a:	04090003          	lb	zero,64(s2)
 98e:	0100                	addi	s0,sp,128
 990:	0905                	addi	s2,s2,1
 992:	0306                	slli	t1,t1,0x1
 994:	00040903          	lb	s2,0(s0)
 998:	0501                	addi	a0,a0,0
 99a:	0305                	addi	t1,t1,1
 99c:	097a                	slli	s2,s2,0x1e
 99e:	0000                	unimp
 9a0:	0501                	addi	a0,a0,0
 9a2:	0608                	addi	a0,sp,768
 9a4:	00090003          	lb	zero,0(s2)
 9a8:	0100                	addi	s0,sp,128
 9aa:	0905                	addi	s2,s2,1
 9ac:	0306                	slli	t1,t1,0x1
 9ae:	00040907          	0x40907
 9b2:	0501                	addi	a0,a0,0
 9b4:	0305                	addi	t1,t1,1
 9b6:	0979                	addi	s2,s2,30
 9b8:	0004                	0x4
 9ba:	0501                	addi	a0,a0,0
 9bc:	0608                	addi	a0,sp,768
 9be:	00090003          	lb	zero,0(s2)
 9c2:	0100                	addi	s0,sp,128
 9c4:	0905                	addi	s2,s2,1
 9c6:	0306                	slli	t1,t1,0x1
 9c8:	0909                	addi	s2,s2,2
 9ca:	0004                	0x4
 9cc:	0601                	addi	a2,a2,0
 9ce:	10097e03          	0x10097e03
 9d2:	0100                	addi	s0,sp,128
 9d4:	04090203          	lb	tp,64(s2)
 9d8:	0100                	addi	s0,sp,128
 9da:	0306                	slli	t1,t1,0x1
 9dc:	097e                	slli	s2,s2,0x1f
 9de:	0004                	0x4
 9e0:	0501                	addi	a0,a0,0
 9e2:	0305                	addi	t1,t1,1
 9e4:	0979                	addi	s2,s2,30
 9e6:	0000                	unimp
 9e8:	0501                	addi	a0,a0,0
 9ea:	0608                	addi	a0,sp,768
 9ec:	00090003          	lb	zero,0(s2)
 9f0:	0100                	addi	s0,sp,128
 9f2:	0905                	addi	s2,s2,1
 9f4:	0306                	slli	t1,t1,0x1
 9f6:	00040903          	lb	s2,0(s0)
 9fa:	0501                	addi	a0,a0,0
 9fc:	0618                	addi	a4,sp,768
 9fe:	00090003          	lb	zero,0(s2)
 a02:	0100                	addi	s0,sp,128
 a04:	1d05                	addi	s10,s10,-31
 a06:	04090003          	lb	zero,64(s2)
 a0a:	0100                	addi	s0,sp,128
 a0c:	0d05                	addi	s10,s10,1
 a0e:	04090003          	lb	zero,64(s2)
 a12:	0100                	addi	s0,sp,128
 a14:	0905                	addi	s2,s2,1
 a16:	0306                	slli	t1,t1,0x1
 a18:	00040903          	lb	s2,0(s0)
 a1c:	0501                	addi	a0,a0,0
 a1e:	0305                	addi	t1,t1,1
 a20:	097a                	slli	s2,s2,0x1e
 a22:	0000                	unimp
 a24:	0501                	addi	a0,a0,0
 a26:	0608                	addi	a0,sp,768
 a28:	00090003          	lb	zero,0(s2)
 a2c:	0100                	addi	s0,sp,128
 a2e:	0905                	addi	s2,s2,1
 a30:	0306                	slli	t1,t1,0x1
 a32:	00040907          	0x40907
 a36:	0501                	addi	a0,a0,0
 a38:	0305                	addi	t1,t1,1
 a3a:	0979                	addi	s2,s2,30
 a3c:	0004                	0x4
 a3e:	0501                	addi	a0,a0,0
 a40:	0608                	addi	a0,sp,768
 a42:	00090003          	lb	zero,0(s2)
 a46:	0100                	addi	s0,sp,128
 a48:	0905                	addi	s2,s2,1
 a4a:	0306                	slli	t1,t1,0x1
 a4c:	0909                	addi	s2,s2,2
 a4e:	0004                	0x4
 a50:	0301                	addi	t1,t1,0
 a52:	097a                	slli	s2,s2,0x1e
 a54:	0018                	0x18
 a56:	0501                	addi	a0,a0,0
 a58:	0618                	addi	a4,sp,768
 a5a:	00090003          	lb	zero,0(s2)
 a5e:	0100                	addi	s0,sp,128
 a60:	1d05                	addi	s10,s10,-31
 a62:	04090003          	lb	zero,64(s2)
 a66:	0100                	addi	s0,sp,128
 a68:	0d05                	addi	s10,s10,1
 a6a:	04090003          	lb	zero,64(s2)
 a6e:	0100                	addi	s0,sp,128
 a70:	0905                	addi	s2,s2,1
 a72:	0306                	slli	t1,t1,0x1
 a74:	00040903          	lb	s2,0(s0)
 a78:	0501                	addi	a0,a0,0
 a7a:	0305                	addi	t1,t1,1
 a7c:	097a                	slli	s2,s2,0x1e
 a7e:	0000                	unimp
 a80:	0501                	addi	a0,a0,0
 a82:	0608                	addi	a0,sp,768
 a84:	00090003          	lb	zero,0(s2)
 a88:	0100                	addi	s0,sp,128
 a8a:	0905                	addi	s2,s2,1
 a8c:	0306                	slli	t1,t1,0x1
 a8e:	00040907          	0x40907
 a92:	0501                	addi	a0,a0,0
 a94:	0305                	addi	t1,t1,1
 a96:	0979                	addi	s2,s2,30
 a98:	0004                	0x4
 a9a:	0501                	addi	a0,a0,0
 a9c:	0608                	addi	a0,sp,768
 a9e:	00090003          	lb	zero,0(s2)
 aa2:	0100                	addi	s0,sp,128
 aa4:	0905                	addi	s2,s2,1
 aa6:	0306                	slli	t1,t1,0x1
 aa8:	0909                	addi	s2,s2,2
 aaa:	0004                	0x4
 aac:	0301                	addi	t1,t1,0
 aae:	097a                	slli	s2,s2,0x1e
 ab0:	0018                	0x18
 ab2:	0501                	addi	a0,a0,0
 ab4:	061d                	addi	a2,a2,7
 ab6:	00090003          	lb	zero,0(s2)
 aba:	0100                	addi	s0,sp,128
 abc:	0d05                	addi	s10,s10,1
 abe:	04090003          	lb	zero,64(s2)
 ac2:	0100                	addi	s0,sp,128
 ac4:	0905                	addi	s2,s2,1
 ac6:	0306                	slli	t1,t1,0x1
 ac8:	00040903          	lb	s2,0(s0)
 acc:	0501                	addi	a0,a0,0
 ace:	0305                	addi	t1,t1,1
 ad0:	097a                	slli	s2,s2,0x1e
 ad2:	0000                	unimp
 ad4:	0501                	addi	a0,a0,0
 ad6:	0608                	addi	a0,sp,768
 ad8:	00090003          	lb	zero,0(s2)
 adc:	0100                	addi	s0,sp,128
 ade:	0905                	addi	s2,s2,1
 ae0:	0306                	slli	t1,t1,0x1
 ae2:	00040907          	0x40907
 ae6:	0501                	addi	a0,a0,0
 ae8:	0305                	addi	t1,t1,1
 aea:	0979                	addi	s2,s2,30
 aec:	0004                	0x4
 aee:	0501                	addi	a0,a0,0
 af0:	0608                	addi	a0,sp,768
 af2:	00090003          	lb	zero,0(s2)
 af6:	0100                	addi	s0,sp,128
 af8:	0905                	addi	s2,s2,1
 afa:	0306                	slli	t1,t1,0x1
 afc:	0909                	addi	s2,s2,2
 afe:	0004                	0x4
 b00:	0501                	addi	a0,a0,0
 b02:	0301                	addi	t1,t1,0
 b04:	0976                	slli	s2,s2,0x1d
 b06:	00a0                	addi	s0,sp,72
 b08:	0501                	addi	a0,a0,0
 b0a:	0305                	addi	t1,t1,1
 b0c:	0901                	addi	s2,s2,0
 b0e:	0000                	unimp
 b10:	0501                	addi	a0,a0,0
 b12:	0608                	addi	a0,sp,768
 b14:	00090003          	lb	zero,0(s2)
 b18:	0100                	addi	s0,sp,128
 b1a:	0105                	addi	sp,sp,1
 b1c:	08097f03          	0x8097f03
 b20:	0100                	addi	s0,sp,128
 b22:	1805                	addi	a6,a6,-31
 b24:	04090403          	lb	s0,64(s2)
 b28:	0100                	addi	s0,sp,128
 b2a:	0105                	addi	sp,sp,1
 b2c:	04097c03          	0x4097c03
 b30:	0100                	addi	s0,sp,128
 b32:	1d05                	addi	s10,s10,-31
 b34:	04090403          	lb	s0,64(s2)
 b38:	0100                	addi	s0,sp,128
 b3a:	0105                	addi	sp,sp,1
 b3c:	04097c03          	0x4097c03
 b40:	0100                	addi	s0,sp,128
 b42:	0d05                	addi	s10,s10,1
 b44:	18090403          	lb	s0,384(s2)
 b48:	0100                	addi	s0,sp,128
 b4a:	0905                	addi	s2,s2,1
 b4c:	0306                	slli	t1,t1,0x1
 b4e:	0900                	addi	s0,sp,144
 b50:	0010                	0x10
 b52:	0301                	addi	t1,t1,0
 b54:	00000903          	lb	s2,0(zero) # 0 <_start-0x1000>
 b58:	0501                	addi	a0,a0,0
 b5a:	0305                	addi	t1,t1,1
 b5c:	097a                	slli	s2,s2,0x1e
 b5e:	0000                	unimp
 b60:	0501                	addi	a0,a0,0
 b62:	0608                	addi	a0,sp,768
 b64:	00090003          	lb	zero,0(s2)
 b68:	0100                	addi	s0,sp,128
 b6a:	0905                	addi	s2,s2,1
 b6c:	0306                	slli	t1,t1,0x1
 b6e:	00040907          	0x40907
 b72:	0501                	addi	a0,a0,0
 b74:	0305                	addi	t1,t1,1
 b76:	0979                	addi	s2,s2,30
 b78:	0004                	0x4
 b7a:	0501                	addi	a0,a0,0
 b7c:	0608                	addi	a0,sp,768
 b7e:	00090003          	lb	zero,0(s2)
 b82:	0100                	addi	s0,sp,128
 b84:	0905                	addi	s2,s2,1
 b86:	0306                	slli	t1,t1,0x1
 b88:	0909                	addi	s2,s2,2
 b8a:	0004                	0x4
 b8c:	0501                	addi	a0,a0,0
 b8e:	0601                	addi	a2,a2,0
 b90:	04090203          	lb	tp,64(s2)
 b94:	0100                	addi	s0,sp,128
 b96:	0905                	addi	s2,s2,1
 b98:	10097e03          	0x10097e03
 b9c:	0100                	addi	s0,sp,128
 b9e:	0105                	addi	sp,sp,1
 ba0:	08090203          	lb	tp,128(s2)
 ba4:	0100                	addi	s0,sp,128
 ba6:	0905                	addi	s2,s2,1
 ba8:	08097e03          	0x8097e03
 bac:	0100                	addi	s0,sp,128
 bae:	0105                	addi	sp,sp,1
 bb0:	04090203          	lb	tp,64(s2)
 bb4:	0100                	addi	s0,sp,128
 bb6:	0905                	addi	s2,s2,1
 bb8:	08097e03          	0x8097e03
 bbc:	0100                	addi	s0,sp,128
 bbe:	0306                	slli	t1,t1,0x1
 bc0:	097a                	slli	s2,s2,0x1e
 bc2:	0004                	0x4
 bc4:	0501                	addi	a0,a0,0
 bc6:	061d                	addi	a2,a2,7
 bc8:	00090003          	lb	zero,0(s2)
 bcc:	0100                	addi	s0,sp,128
 bce:	0d05                	addi	s10,s10,1
 bd0:	04090003          	lb	zero,64(s2)
 bd4:	0100                	addi	s0,sp,128
 bd6:	0905                	addi	s2,s2,1
 bd8:	0306                	slli	t1,t1,0x1
 bda:	00040903          	lb	s2,0(s0)
 bde:	0501                	addi	a0,a0,0
 be0:	0305                	addi	t1,t1,1
 be2:	097a                	slli	s2,s2,0x1e
 be4:	0000                	unimp
 be6:	0501                	addi	a0,a0,0
 be8:	0608                	addi	a0,sp,768
 bea:	00090003          	lb	zero,0(s2)
 bee:	0100                	addi	s0,sp,128
 bf0:	0905                	addi	s2,s2,1
 bf2:	0306                	slli	t1,t1,0x1
 bf4:	00040907          	0x40907
 bf8:	0501                	addi	a0,a0,0
 bfa:	0305                	addi	t1,t1,1
 bfc:	0979                	addi	s2,s2,30
 bfe:	0004                	0x4
 c00:	0501                	addi	a0,a0,0
 c02:	0608                	addi	a0,sp,768
 c04:	00090003          	lb	zero,0(s2)
 c08:	0100                	addi	s0,sp,128
 c0a:	0905                	addi	s2,s2,1
 c0c:	0306                	slli	t1,t1,0x1
 c0e:	0909                	addi	s2,s2,2
 c10:	0004                	0x4
 c12:	0601                	addi	a2,a2,0
 c14:	10097e03          	0x10097e03
 c18:	0100                	addi	s0,sp,128
 c1a:	04090203          	lb	tp,64(s2)
 c1e:	0100                	addi	s0,sp,128
 c20:	0306                	slli	t1,t1,0x1
 c22:	097e                	slli	s2,s2,0x1f
 c24:	0004                	0x4
 c26:	0501                	addi	a0,a0,0
 c28:	0305                	addi	t1,t1,1
 c2a:	0979                	addi	s2,s2,30
 c2c:	0000                	unimp
 c2e:	0501                	addi	a0,a0,0
 c30:	0608                	addi	a0,sp,768
 c32:	00090003          	lb	zero,0(s2)
 c36:	0100                	addi	s0,sp,128
 c38:	0905                	addi	s2,s2,1
 c3a:	0306                	slli	t1,t1,0x1
 c3c:	00040903          	lb	s2,0(s0)
 c40:	0501                	addi	a0,a0,0
 c42:	0618                	addi	a4,sp,768
 c44:	00090003          	lb	zero,0(s2)
 c48:	0100                	addi	s0,sp,128
 c4a:	1d05                	addi	s10,s10,-31
 c4c:	04090003          	lb	zero,64(s2)
 c50:	0100                	addi	s0,sp,128
 c52:	0d05                	addi	s10,s10,1
 c54:	04090003          	lb	zero,64(s2)
 c58:	0100                	addi	s0,sp,128
 c5a:	0905                	addi	s2,s2,1
 c5c:	0306                	slli	t1,t1,0x1
 c5e:	00040903          	lb	s2,0(s0)
 c62:	0501                	addi	a0,a0,0
 c64:	0305                	addi	t1,t1,1
 c66:	097a                	slli	s2,s2,0x1e
 c68:	0000                	unimp
 c6a:	0501                	addi	a0,a0,0
 c6c:	0608                	addi	a0,sp,768
 c6e:	00090003          	lb	zero,0(s2)
 c72:	0100                	addi	s0,sp,128
 c74:	0905                	addi	s2,s2,1
 c76:	0306                	slli	t1,t1,0x1
 c78:	00040907          	0x40907
 c7c:	0501                	addi	a0,a0,0
 c7e:	0305                	addi	t1,t1,1
 c80:	0979                	addi	s2,s2,30
 c82:	0004                	0x4
 c84:	0501                	addi	a0,a0,0
 c86:	0608                	addi	a0,sp,768
 c88:	00090003          	lb	zero,0(s2)
 c8c:	0100                	addi	s0,sp,128
 c8e:	0905                	addi	s2,s2,1
 c90:	0306                	slli	t1,t1,0x1
 c92:	0909                	addi	s2,s2,2
 c94:	0004                	0x4
 c96:	0901                	addi	s2,s2,0
 c98:	0058                	addi	a4,sp,4
 c9a:	0100                	addi	s0,sp,128
 c9c:	0501                	addi	a0,a0,0
 c9e:	0001                	nop
 ca0:	0205                	addi	tp,tp,1
 ca2:	1f14                	addi	a3,sp,944
 ca4:	0000                	unimp
 ca6:	0100ca03          	lbu	s4,16(ra)
 caa:	0505                	addi	a0,a0,1
 cac:	00090103          	lb	sp,0(s2)
 cb0:	0100                	addi	s0,sp,128
 cb2:	0905                	addi	s2,s2,1
 cb4:	0306                	slli	t1,t1,0x1
 cb6:	0900                	addi	s0,sp,144
 cb8:	0000                	unimp
 cba:	0501                	addi	a0,a0,0
 cbc:	0301                	addi	t1,t1,0
 cbe:	097f                	0x97f
 cc0:	0020                	addi	s0,sp,8
 cc2:	0501                	addi	a0,a0,0
 cc4:	0309                	addi	t1,t1,2
 cc6:	0901                	addi	s2,s2,0
 cc8:	0014                	0x14
 cca:	0501                	addi	a0,a0,0
 ccc:	0605                	addi	a2,a2,1
 cce:	18090103          	lb	sp,384(s2)
 cd2:	0100                	addi	s0,sp,128
 cd4:	00090303          	lb	t1,0(s2)
 cd8:	0100                	addi	s0,sp,128
 cda:	00096c03          	0x96c03
 cde:	0100                	addi	s0,sp,128
 ce0:	04091603          	lh	a2,64(s2)
 ce4:	0100                	addi	s0,sp,128
 ce6:	0105                	addi	sp,sp,1
 ce8:	0306                	slli	t1,t1,0x1
 cea:	0901                	addi	s2,s2,0
 cec:	0000                	unimp
 cee:	0901                	addi	s2,s2,0
 cf0:	0010                	0x10
 cf2:	0100                	addi	s0,sp,128
 cf4:	01              	Address 0x0000000000000cf4 is out of bounds.


Disassembly of section .debug_line_str:

00000000 <.debug_line_str>:
   0:	6d6f682f          	0x6d6f682f
   4:	2f65                	jal	7bc <_start-0x844>
   6:	726a                	flw	ft4,184(sp)
   8:	656d                	lui	a0,0x1b
   a:	6b72                	flw	fs6,28(sp)
   c:	6c65                	lui	s8,0x19
   e:	636f442f          	0x636f442f
  12:	6d75                	lui	s10,0x1d
  14:	6e65                	lui	t3,0x19
  16:	7374                	flw	fa3,100(a4)
  18:	6863532f          	0x6863532f
  1c:	2f6c6f6f          	jal	t5,c6312 <__rodata_end+0xc4386>
  20:	3835                	jal	fffff85c <stack_top+0x7ffdf85c>
  22:	2f31                	jal	73e <_start-0x8c2>
  24:	7270                	flw	fa2,100(a2)
  26:	722f6a6f          	jal	s4,f6748 <__rodata_end+0xf47bc>
  2a:	502f6473          	csrrsi	s0,0x502,30
  2e:	6f72                	flw	ft10,28(sp)
  30:	73736563          	bltu	t1,s7,75a <_start-0x8a6>
  34:	532f726f          	jal	tp,f7566 <__rodata_end+0xf55da>
  38:	6372                	flw	ft6,28(sp)
  3a:	7265562f          	0x7265562f
  3e:	6669                	lui	a2,0x1a
  40:	6369                	lui	t1,0x1a
  42:	7461                	lui	s0,0xffff8
  44:	6f69                	lui	t5,0x1a
  46:	2f6e                	fld	ft10,216(sp)
  48:	6554                	flw	fa3,12(a0)
  4a:	6f437473          	csrrci	s0,0x6f4,6
  4e:	6564                	flw	fs1,76(a0)
  50:	462f432f          	0x462f432f
  54:	6269                	lui	tp,0x1a
  56:	63616e6f          	jal	t3,1668c <__rodata_end+0x14700>
  5a:	72006963          	bltu	zero,zero,78c <_start-0x874>
  5e:	632d6473          	csrrsi	s0,0x632,26
  62:	7472                	flw	fs0,60(sp)
  64:	732e                	flw	ft6,232(sp)
  66:	2f00                	fld	fs0,24(a4)
  68:	6f68                	flw	fa0,92(a4)
  6a:	656d                	lui	a0,0x1b
  6c:	6d726a2f          	0x6d726a2f
  70:	7265                	lui	tp,0xffff9
  72:	2f6c656b          	0x2f6c656b
  76:	6f44                	flw	fs1,28(a4)
  78:	656d7563          	bgeu	s10,s6,6c2 <_start-0x93e>
  7c:	746e                	flw	fs0,248(sp)
  7e:	63532f73          	csrrs	t5,0x635,t1
  82:	6f68                	flw	fa0,92(a4)
  84:	352f6c6f          	jal	s8,f63d6 <__rodata_end+0xf444a>
  88:	3138                	fld	fa4,96(a0)
  8a:	6f72702f          	0x6f72702f
  8e:	2f6a                	fld	ft10,152(sp)
  90:	7372                	flw	ft6,60(sp)
  92:	2f64                	fld	fs1,216(a4)
  94:	6f72502f          	0x6f72502f
  98:	73736563          	bltu	t1,s7,7c2 <_start-0x83e>
  9c:	532f726f          	jal	tp,f75ce <__rodata_end+0xf5642>
  a0:	6372                	flw	ft6,28(sp)
  a2:	7265562f          	0x7265562f
  a6:	6669                	lui	a2,0x1a
  a8:	6369                	lui	t1,0x1a
  aa:	7461                	lui	s0,0xffff8
  ac:	6f69                	lui	t5,0x1a
  ae:	2f6e                	fld	ft10,216(sp)
  b0:	6554                	flw	fa3,12(a0)
  b2:	6f437473          	csrrci	s0,0x6f4,6
  b6:	6564                	flw	fs1,76(a0)
  b8:	6473722f          	0x6473722f
  bc:	6c2d                	lui	s8,0xb
  be:	6564616f          	jal	sp,46714 <__rodata_end+0x44788>
  c2:	2e72                	fld	ft8,280(sp)
  c4:	682f0063          	beq	t5,sp,744 <_start-0x8bc>
  c8:	2f656d6f          	jal	s10,563be <__rodata_end+0x54432>
  cc:	726a                	flw	ft4,184(sp)
  ce:	656d                	lui	a0,0x1b
  d0:	6b72                	flw	fs6,28(sp)
  d2:	6c65                	lui	s8,0x19
  d4:	636f442f          	0x636f442f
  d8:	6d75                	lui	s10,0x1d
  da:	6e65                	lui	t3,0x19
  dc:	7374                	flw	fa3,100(a4)
  de:	6863532f          	0x6863532f
  e2:	2f6c6f6f          	jal	t5,c63d8 <__rodata_end+0xc444c>
  e6:	3835                	jal	fffff922 <stack_top+0x7ffdf922>
  e8:	2f31                	jal	804 <_start-0x7fc>
  ea:	7270                	flw	fa2,100(a2)
  ec:	722f6a6f          	jal	s4,f680e <__rodata_end+0xf4882>
  f0:	2f2f6473          	csrrsi	s0,0x2f2,30
  f4:	7250                	flw	fa2,36(a2)
  f6:	7365636f          	jal	t1,5682c <__rodata_end+0x548a0>
  fa:	2f726f73          	csrrsi	t5,0x2f7,4
  fe:	2f637253          	0x2f637253
 102:	6556                	flw	fa0,84(sp)
 104:	6972                	flw	fs2,28(sp)
 106:	6966                	flw	fs2,88(sp)
 108:	69746163          	bltu	s0,s7,78a <_start-0x876>
 10c:	542f6e6f          	jal	t3,f664e <__rodata_end+0xf46c2>
 110:	7365                	lui	t1,0xffff9
 112:	4374                	lw	a3,68(a4)
 114:	0065646f          	jal	s0,5611a <__rodata_end+0x5418e>
 118:	74706f2f          	0x74706f2f
 11c:	7369722f          	0x7369722f
 120:	32337663          	bgeu	t1,gp,44c <_start-0xbb4>
 124:	2f69                	jal	8be <_start-0x742>
 126:	696c                	flw	fa1,84(a0)
 128:	2f62                	fld	ft10,24(sp)
 12a:	2f636367          	0x2f636367
 12e:	6972                	flw	fs2,28(sp)
 130:	33766373          	csrrsi	t1,mhpmevent23,12
 134:	2d32                	fld	fs10,264(sp)
 136:	6e75                	lui	t3,0x1d
 138:	776f6e6b          	0x776f6e6b
 13c:	2d6e                	fld	fs10,216(sp)
 13e:	6c65                	lui	s8,0x19
 140:	2f66                	fld	ft10,88(sp)
 142:	3131                	jal	fffffd4e <stack_top+0x7ffdfd4e>
 144:	312e                	fld	ft2,232(sp)
 146:	302e                	fld	ft0,232(sp)
 148:	636e692f          	0x636e692f
 14c:	756c                	flw	fa1,108(a0)
 14e:	6564                	flw	fs1,76(a0)
 150:	7300                	flw	fs0,32(a4)
 152:	6474                	flw	fa3,76(s0)
 154:	6e69                	lui	t3,0x1a
 156:	2d74                	fld	fa3,216(a0)
 158:	2e636367          	0x2e636367
 15c:	0068                	addi	a0,sp,12
 15e:	64647473          	csrrci	s0,0x646,8
 162:	6665                	lui	a2,0x19
 164:	682e                	flw	fa6,200(sp)
 166:	2f00                	fld	fs0,24(a4)
 168:	6f68                	flw	fa0,92(a4)
 16a:	656d                	lui	a0,0x1b
 16c:	6d726a2f          	0x6d726a2f
 170:	7265                	lui	tp,0xffff9
 172:	2f6c656b          	0x2f6c656b
 176:	6f44                	flw	fs1,28(a4)
 178:	656d7563          	bgeu	s10,s6,7c2 <_start-0x83e>
 17c:	746e                	flw	fs0,248(sp)
 17e:	63532f73          	csrrs	t5,0x635,t1
 182:	6f68                	flw	fa0,92(a4)
 184:	352f6c6f          	jal	s8,f64d6 <__rodata_end+0xf454a>
 188:	3138                	fld	fa4,96(a0)
 18a:	6f72702f          	0x6f72702f
 18e:	2f6a                	fld	ft10,152(sp)
 190:	7372                	flw	ft6,60(sp)
 192:	2f64                	fld	fs1,216(a4)
 194:	7250                	flw	fa2,36(a2)
 196:	7365636f          	jal	t1,568cc <__rodata_end+0x54940>
 19a:	2f726f73          	csrrsi	t5,0x2f7,4
 19e:	2f637253          	0x2f637253
 1a2:	6556                	flw	fa0,84(sp)
 1a4:	6972                	flw	fs2,28(sp)
 1a6:	6966                	flw	fs2,88(sp)
 1a8:	69746163          	bltu	s0,s7,82a <_start-0x7d6>
 1ac:	542f6e6f          	jal	t3,f66ee <__rodata_end+0xf4762>
 1b0:	7365                	lui	t1,0xffff9
 1b2:	4374                	lw	a3,68(a4)
 1b4:	2f65646f          	jal	s0,564aa <__rodata_end+0x5451e>
 1b8:	38352f43          	fmadd.s	ft10,fa0,ft3,ft7,rdn
 1bc:	0031                	c.nop	12
 1be:	65646f63          	bltu	s0,s6,81c <_start-0x7e4>
 1c2:	632e                	flw	ft6,200(sp)
	...

Disassembly of section .debug_info:

00000000 <.debug_info>:
   0:	0021                	c.nop	8
   2:	0000                	unimp
   4:	0005                	c.nop	1
   6:	0401                	addi	s0,s0,0
   8:	0000                	unimp
   a:	0000                	unimp
   c:	0001                	nop
   e:	0000                	unimp
  10:	0000                	unimp
  12:	0010                	0x10
  14:	cc00                	sw	s0,24(s0)
  16:	00000013          	nop
  1a:	0a00                	addi	s0,sp,272
  1c:	0000                	unimp
  1e:	6700                	flw	fs0,8(a4)
  20:	0000                	unimp
  22:	0100                	addi	s0,sp,128
  24:	2680                	fld	fs0,8(a3)
  26:	0002                	c.slli64	zero
  28:	0500                	addi	s0,sp,640
  2a:	0100                	addi	s0,sp,128
  2c:	1404                	addi	s1,sp,544
  2e:	0000                	unimp
  30:	0f00                	addi	s0,sp,912
  32:	014e                	slli	sp,sp,0x13
  34:	0000                	unimp
  36:	671d                	lui	a4,0x7
  38:	0000                	unimp
  3a:	0000                	unimp
  3c:	0000                	unimp
  3e:	bc00                	fsd	fs0,56(s0)
  40:	0019                	c.nop	6
  42:	7400                	flw	fs0,40(s0)
  44:	0000                	unimp
  46:	5800                	lw	s0,48(s0)
  48:	01000003          	lb	zero,16(zero) # 10 <_start-0xff0>
  4c:	0601                	addi	a2,a2,0
  4e:	000000a3          	sb	zero,1(zero) # 1 <_start-0xfff>
  52:	0201                	addi	tp,tp,0
  54:	3705                	jal	ffffff74 <stack_top+0x7ffdff74>
  56:	0001                	nop
  58:	0100                	addi	s0,sp,128
  5a:	0504                	addi	s1,sp,640
  5c:	0122                	slli	sp,sp,0x8
  5e:	0000                	unimp
  60:	0801                	addi	a6,a6,0
  62:	1d05                	addi	s10,s10,-31
  64:	0001                	nop
  66:	0800                	addi	s0,sp,16
  68:	0000010b          	0x10b
  6c:	2e02                	fld	ft8,0(sp)
  6e:	5318                	lw	a4,32(a4)
  70:	0000                	unimp
  72:	1000                	addi	s0,sp,32
  74:	0042                	c.slli	zero,0x10
  76:	0000                	unimp
  78:	0101                	addi	sp,sp,0
  7a:	a108                	fsd	fa0,0(a0)
  7c:	0000                	unimp
  7e:	0100                	addi	s0,sp,128
  80:	0702                	c.slli64	a4
  82:	000000af          	0xaf
  86:	0401                	addi	s0,s0,0
  88:	0000f907          	0xf907
  8c:	0100                	addi	s0,sp,128
  8e:	0708                	addi	a0,sp,896
  90:	00f4                	addi	a3,sp,76
  92:	0000                	unimp
  94:	0411                	addi	s0,s0,4
  96:	6905                	lui	s2,0x1
  98:	746e                	flw	fs0,248(sp)
  9a:	0100                	addi	s0,sp,128
  9c:	0704                	addi	s1,sp,896
  9e:	00fe                	slli	ra,ra,0x1f
  a0:	0000                	unimp
  a2:	7308                	flw	fa0,32(a4)
  a4:	0000                	unimp
  a6:	0300                	addi	s0,sp,384
  a8:	17d1                	addi	a5,a5,-12
  aa:	0076                	c.slli	zero,0x1d
  ac:	0000                	unimp
  ae:	1001                	c.nop	-32
  b0:	fc04                	fsw	fs1,56(s0)
  b2:	0001                	nop
  b4:	0200                	addi	s0,sp,256
  b6:	0085                	addi	ra,ra,1
  b8:	0000                	unimp
  ba:	6f04                	flw	fs1,24(a4)
  bc:	0000                	unimp
  be:	0200                	addi	s0,sp,256
  c0:	0141                	addi	sp,sp,16
  c2:	0000                	unimp
  c4:	6f05                	lui	t5,0x1
  c6:	0000                	unimp
  c8:	0200                	addi	s0,sp,256
  ca:	007a                	c.slli	zero,0x1e
  cc:	0000                	unimp
  ce:	6f06                	flw	ft10,64(sp)
  d0:	0000                	unimp
  d2:	0200                	addi	s0,sp,256
  d4:	00e8                	addi	a0,sp,76
  d6:	0000                	unimp
  d8:	00006f07          	0x6f07
  dc:	0200                	addi	s0,sp,256
  de:	00000113          	li	sp,0
  e2:	6f08                	flw	fa0,24(a4)
  e4:	0000                	unimp
  e6:	1200                	addi	s0,sp,288
  e8:	00c2                	slli	ra,ra,0x10
  ea:	0000                	unimp
  ec:	1e01                	addi	t3,t3,-32
  ee:	bc06                	fsd	ft1,56(sp)
  f0:	0019                	c.nop	6
  f2:	7400                	flw	fs0,40(s0)
  f4:	0000                	unimp
  f6:	0100                	addi	s0,sp,128
  f8:	859c                	0x859c
  fa:	0001                	nop
  fc:	1300                	addi	s0,sp,416
  fe:	0092                	slli	ra,ra,0x4
 100:	0000                	unimp
 102:	2201                	jal	202 <_start-0xdfe>
 104:	7d0c                	flw	fa1,56(a0)
 106:	0000                	unimp
 108:	0c00                	addi	s0,sp,528
 10a:	0000                	unimp
 10c:	1400                	addi	s0,sp,544
 10e:	00d9                	addi	ra,ra,22
 110:	0000                	unimp
 112:	2301                	jal	612 <_start-0x9ee>
 114:	7d0c                	flw	fa1,56(a0)
 116:	0000                	unimp
 118:	0100                	addi	s0,sp,128
 11a:	01ce155b          	0x1ce155b
 11e:	0000                	unimp
 120:	19e4                	addi	s1,sp,252
 122:	0000                	unimp
 124:	0030                	addi	a2,sp,8
 126:	0000                	unimp
 128:	2401                	jal	328 <_start-0xcd8>
 12a:	4805                	li	a6,1
 12c:	0001                	nop
 12e:	0900                	addi	s0,sp,144
 130:	01f2                	slli	gp,gp,0x1c
 132:	0000                	unimp
 134:	0018                	0x18
 136:	0000                	unimp
 138:	0001e703          	0x1e703
 13c:	0900                	addi	s0,sp,144
 13e:	01dc                	addi	a5,sp,196
 140:	0000                	unimp
 142:	0024                	addi	s1,sp,8
 144:	0000                	unimp
 146:	fb16                	fsw	ft5,180(sp)
 148:	0001                	nop
 14a:	8000                	0x8000
 14c:	8080                	0x8080
 14e:	7880                	flw	fs0,48(s1)
 150:	070a                	slli	a4,a4,0x2
 152:	0002                	c.slli64	zero
 154:	0b00                	addi	s0,sp,400
 156:	0212                	slli	tp,tp,0x4
 158:	0000                	unimp
 15a:	19e4                	addi	s1,sp,252
 15c:	0000                	unimp
 15e:	0030                	addi	a2,sp,8
 160:	0000                	unimp
 162:	130c                	addi	a1,sp,416
 164:	0002                	c.slli64	zero
 166:	3400                	fld	fs0,40(s0)
 168:	0000                	unimp
 16a:	0000                	unimp
 16c:	1700                	addi	s0,sp,928
 16e:	0185                	addi	gp,gp,1
 170:	0000                	unimp
 172:	1a14                	addi	a3,sp,304
 174:	0000                	unimp
 176:	0018                	0x18
 178:	0000                	unimp
 17a:	2501                	jal	77a <_start-0x886>
 17c:	0305                	addi	t1,t1,1
 17e:	000001a7          	0x1a7
 182:	00019e03          	lh	t3,0(gp)
 186:	0300                	addi	s0,sp,384
 188:	00000193          	li	gp,0
 18c:	b00a                	fsd	ft2,32(sp)
 18e:	0001                	nop
 190:	0b00                	addi	s0,sp,400
 192:	000001bb          	0x1bb
 196:	1a14                	addi	a3,sp,304
 198:	0000                	unimp
 19a:	0018                	0x18
 19c:	0000                	unimp
 19e:	bc0c                	fsd	fa1,56(s0)
 1a0:	0001                	nop
 1a2:	4100                	lw	s0,0(a0)
 1a4:	0000                	unimp
 1a6:	0000                	unimp
 1a8:	0000                	unimp
 1aa:	c80d                	beqz	s0,1dc <_start-0xe24>
 1ac:	0000                	unimp
 1ae:	1600                	addi	s0,sp,800
 1b0:	000001c7          	fmsub.s	ft3,ft0,ft0,ft0,rne
 1b4:	000001c7          	fmsub.s	ft3,ft0,ft0,ft0,rne
 1b8:	f705                	bnez	a4,e0 <_start-0xf20>
 1ba:	0001                	nop
 1bc:	1600                	addi	s0,sp,800
 1be:	c720                	sw	s0,72(a4)
 1c0:	0001                	nop
 1c2:	0600                	addi	s0,sp,768
 1c4:	2a160063          	beq	a2,ra,464 <_start-0xb9c>
 1c8:	0000006f          	j	1c8 <_start-0xe38>
 1cc:	6e06                	flw	ft8,64(sp)
 1ce:	1600                	addi	s0,sp,800
 1d0:	7d34                	flw	fa3,120(a0)
 1d2:	0000                	unimp
 1d4:	0400                	addi	s0,sp,512
 1d6:	00727473          	csrrci	s0,0x7,4
 1da:	01c90e17          	auipc	t3,0x1c90
 1de:	0000                	unimp
 1e0:	040e                	slli	s0,s0,0x3
 1e2:	0069                	c.nop	26
 1e4:	1118                	addi	a4,sp,160
 1e6:	007d                	c.nop	31
 1e8:	0000                	unimp
 1ea:	0000                	unimp
 1ec:	0418                	addi	a4,sp,512
 1ee:	00004207          	flq	ft4,0(zero) # 0 <_start-0x1000>
 1f2:	0d00                	addi	s0,sp,656
 1f4:	0000012b          	0x12b
 1f8:	c70c                	sw	a1,8(a4)
 1fa:	0001                	nop
 1fc:	1e00                	addi	s0,sp,816
 1fe:	0002                	c.slli64	zero
 200:	0500                	addi	s0,sp,640
 202:	00e2                	slli	ra,ra,0x18
 204:	0000                	unimp
 206:	200c                	fld	fa1,0(s0)
 208:	000001c7          	fmsub.s	ft3,ft0,ft0,ft0,rne
 20c:	9c05                	0x9c05
 20e:	0000                	unimp
 210:	0c00                	addi	s0,sp,528
 212:	00021e33          	sll	t3,tp,zero
 216:	0600                	addi	s0,sp,768
 218:	006e                	c.slli	zero,0x1b
 21a:	400c                	lw	a1,0(s0)
 21c:	007d                	c.nop	31
 21e:	0000                	unimp
 220:	d419                	beqz	s0,12e <_start-0xed2>
 222:	0000                	unimp
 224:	0100                	addi	s0,sp,128
 226:	0e0d                	addi	t3,t3,3
 228:	01c9                	addi	gp,gp,18
 22a:	0000                	unimp
 22c:	7304                	flw	fs1,32(a4)
 22e:	6372                	flw	ft6,28(sp)
 230:	0e00                	addi	s0,sp,784
 232:	2414                	fld	fa3,8(s0)
 234:	0002                	c.slli64	zero
 236:	0e00                	addi	s0,sp,784
 238:	6904                	flw	fs1,16(a0)
 23a:	1000                	addi	s0,sp,32
 23c:	7d11                	lui	s10,0xfffe4
 23e:	0000                	unimp
 240:	0000                	unimp
 242:	0700                	addi	s0,sp,896
 244:	00000223          	sb	zero,4(zero) # 4 <_start-0xffc>
 248:	071a                	slli	a4,a4,0x6
 24a:	004e                	c.slli	zero,0x13
 24c:	0000                	unimp
 24e:	c900                	sw	s0,16(a0)
 250:	000a                	c.slli	zero,0x2
 252:	0500                	addi	s0,sp,640
 254:	0100                	addi	s0,sp,128
 256:	6e04                	flw	fs1,24(a2)
 258:	0001                	nop
 25a:	1000                	addi	s0,sp,32
 25c:	020d                	addi	tp,tp,3
 25e:	0000                	unimp
 260:	be1d                	j	fffffd96 <stack_top+0x7ffdfd96>
 262:	0001                	nop
 264:	6700                	flw	fs0,8(a4)
 266:	0001                	nop
 268:	2900                	fld	fs0,16(a0)
 26a:	0004                	0x4
 26c:	0000                	unimp
 26e:	0000                	unimp
 270:	b100                	fsd	fs0,32(a0)
 272:	0004                	0x4
 274:	0500                	addi	s0,sp,640
 276:	0601                	addi	a2,a2,0
 278:	000000a3          	sb	zero,1(zero) # 1 <_start-0xfff>
 27c:	0105                	addi	sp,sp,1
 27e:	a108                	fsd	fa0,0(a0)
 280:	0000                	unimp
 282:	0500                	addi	s0,sp,640
 284:	0502                	c.slli64	a0
 286:	00000137          	lui	sp,0x0
 28a:	0205                	addi	tp,tp,1
 28c:	0000af07          	flw	ft10,0(ra)
 290:	0500                	addi	s0,sp,640
 292:	0504                	addi	s1,sp,640
 294:	0122                	slli	sp,sp,0x8
 296:	0000                	unimp
 298:	0405                	addi	s0,s0,1
 29a:	0000f907          	0xf907
 29e:	0500                	addi	s0,sp,640
 2a0:	0508                	addi	a0,sp,640
 2a2:	011d                	addi	sp,sp,7
 2a4:	0000                	unimp
 2a6:	0805                	addi	a6,a6,1
 2a8:	0000f407          	0xf407
 2ac:	1100                	addi	s0,sp,160
 2ae:	0504                	addi	s1,sp,640
 2b0:	6e69                	lui	t3,0x1a
 2b2:	0074                	addi	a3,sp,12
 2b4:	0405                	addi	s0,s0,1
 2b6:	0000fe07          	0xfe07
 2ba:	0500                	addi	s0,sp,640
 2bc:	0410                	addi	a2,sp,512
 2be:	01fc                	addi	a5,sp,204
 2c0:	0000                	unimp
 2c2:	0105                	addi	sp,sp,1
 2c4:	aa08                	fsd	fa0,16(a2)
 2c6:	0000                	unimp
 2c8:	1200                	addi	s0,sp,288
 2ca:	0208                	addi	a0,sp,256
 2cc:	0000                	unimp
 2ce:	4a01                	li	s4,0
 2d0:	5e05                	li	t3,-31
 2d2:	0000                	unimp
 2d4:	1400                	addi	s0,sp,544
 2d6:	001f 6000 0000      	0x6000001f
 2dc:	0100                	addi	s0,sp,128
 2de:	f49c                	fsw	fa5,40(s1)
 2e0:	0000                	unimp
 2e2:	0d00                	addi	s0,sp,656
 2e4:	7261                	lui	tp,0xffff8
 2e6:	0072                	c.slli	zero,0x1c
 2e8:	f44c                	fsw	fa1,44(s0)
 2ea:	0000                	unimp
 2ec:	0200                	addi	s0,sp,256
 2ee:	5891                	li	a7,-28
 2f0:	0002b913          	sltiu	s2,t0,0
 2f4:	0100                	addi	s0,sp,128
 2f6:	094d                	addi	s2,s2,19
 2f8:	005e                	c.slli	zero,0x17
 2fa:	0000                	unimp
 2fc:	0606                	slli	a2,a2,0x1
 2fe:	0104                	addi	s1,sp,128
 300:	0000                	unimp
 302:	1f38                	addi	a4,sp,952
 304:	0000                	unimp
 306:	0416                	slli	s0,s0,0x5
 308:	0000                	unimp
 30a:	0550                	addi	a2,sp,644
 30c:	2301                	jal	80c <_start-0x7f4>
 30e:	0001                	nop
 310:	5a00                	lw	s0,48(a2)
 312:	0000                	unimp
 314:	0100                	addi	s0,sp,128
 316:	0000011b          	0x11b
 31a:	00000067          	jr	zero # 0 <_start-0x1000>
 31e:	1101                	addi	sp,sp,-32
 320:	0001                	nop
 322:	7400                	flw	fs0,40(s0)
 324:	0000                	unimp
 326:	0300                	addi	s0,sp,384
 328:	1f64                	addi	s1,sp,956
 32a:	0000                	unimp
 32c:	0205                	addi	tp,tp,1
 32e:	0000                	unimp
 330:	0102                	c.slli64	sp
 332:	025a                	slli	tp,tp,0x16
 334:	5891                	li	a7,-28
 336:	0102                	c.slli64	sp
 338:	0230015b          	0x230015b
 33c:	5c01                	li	s8,-32
 33e:	3501                	jal	13e <_start-0xec2>
 340:	0000                	unimp
 342:	0b00                	addi	s0,sp,400
 344:	005e                	c.slli	zero,0x17
 346:	0000                	unimp
 348:	0104                	addi	s1,sp,128
 34a:	0000                	unimp
 34c:	6514                	flw	fa3,8(a0)
 34e:	0000                	unimp
 350:	0500                	addi	s0,sp,640
 352:	1500                	addi	s0,sp,672
 354:	02c2                	slli	t0,t0,0x10
 356:	0000                	unimp
 358:	3a01                	jal	fffffc68 <stack_top+0x7ffdfc68>
 35a:	0106                	slli	sp,sp,0x1
 35c:	0138                	addi	a4,sp,136
 35e:	0000                	unimp
 360:	610c                	flw	fa1,0(a0)
 362:	7272                	flw	ft4,60(sp)
 364:	1400                	addi	s0,sp,544
 366:	0138                	addi	a4,sp,136
 368:	0000                	unimp
 36a:	6c0c                	flw	fa1,24(s0)
 36c:	1f00                	addi	s0,sp,944
 36e:	005e                	c.slli	zero,0x17
 370:	0000                	unimp
 372:	720c                	flw	fa1,32(a2)
 374:	2600                	fld	fs0,8(a2)
 376:	005e                	c.slli	zero,0x17
 378:	0000                	unimp
 37a:	1716                	slli	a4,a4,0x25
 37c:	006d                	c.nop	27
 37e:	3f01                	jal	28e <_start-0xd72>
 380:	5e0d                	li	t3,-29
 382:	0000                	unimp
 384:	0000                	unimp
 386:	1800                	addi	s0,sp,48
 388:	5e04                	lw	s1,56(a2)
 38a:	0000                	unimp
 38c:	1900                	addi	s0,sp,176
 38e:	02cc                	addi	a1,sp,324
 390:	0000                	unimp
 392:	0801                	addi	a6,a6,0
 394:	3006                	fld	ft0,96(sp)
 396:	001a                	c.slli	zero,0x6
 398:	9800                	0x9800
 39a:	0001                	nop
 39c:	0100                	addi	s0,sp,128
 39e:	e19c                	fsw	fa5,0(a1)
 3a0:	0001                	nop
 3a2:	0a00                	addi	s0,sp,272
 3a4:	7261                	lui	tp,0xffff8
 3a6:	0072                	c.slli	zero,0x1c
 3a8:	3810                	fld	fa2,48(s0)
 3aa:	0001                	nop
 3ac:	8d00                	0x8d00
 3ae:	0000                	unimp
 3b0:	0a00                	addi	s0,sp,272
 3b2:	006c                	addi	a1,sp,12
 3b4:	00005e1b          	0x5e1b
 3b8:	b200                	fsd	fs0,32(a2)
 3ba:	0000                	unimp
 3bc:	0a00                	addi	s0,sp,272
 3be:	006d                	c.nop	27
 3c0:	5e22                	lw	t3,40(sp)
 3c2:	0000                	unimp
 3c4:	d700                	sw	s0,40(a4)
 3c6:	0000                	unimp
 3c8:	0a00                	addi	s0,sp,272
 3ca:	0072                	c.slli	zero,0x1c
 3cc:	5e29                	li	t3,-22
 3ce:	0000                	unimp
 3d0:	2300                	fld	fs0,0(a4)
 3d2:	0001                	nop
 3d4:	0900                	addi	s0,sp,144
 3d6:	0069                	c.nop	26
 3d8:	090a                	slli	s2,s2,0x2
 3da:	005e                	c.slli	zero,0x17
 3dc:	0000                	unimp
 3de:	013d                	addi	sp,sp,15
 3e0:	0000                	unimp
 3e2:	6a09                	lui	s4,0x2
 3e4:	0a00                	addi	s0,sp,272
 3e6:	5e0c                	lw	a1,56(a2)
 3e8:	0000                	unimp
 3ea:	8300                	0x8300
 3ec:	0001                	nop
 3ee:	0900                	addi	s0,sp,144
 3f0:	0f0a006b          	0xf0a006b
 3f4:	005e                	c.slli	zero,0x17
 3f6:	0000                	unimp
 3f8:	01be                	slli	gp,gp,0xf
 3fa:	0000                	unimp
 3fc:	6e09                	lui	t3,0x2
 3fe:	0031                	c.nop	12
 400:	005e090b          	0x5e090b
 404:	0000                	unimp
 406:	00000207          	0x207
 40a:	6e0d                	lui	t3,0x3
 40c:	0032                	c.slli	zero,0xc
 40e:	5e0c                	lw	a1,56(a2)
 410:	0000                	unimp
 412:	0100                	addi	s0,sp,128
 414:	095d                	addi	s2,s2,23
 416:	004c                	addi	a1,sp,4
 418:	01e1090f          	0x1e1090f
 41c:	0000                	unimp
 41e:	00000243          	fmadd.s	ft4,ft0,ft0,ft0,rne
 422:	5209                	li	tp,-30
 424:	0f00                	addi	s0,sp,912
 426:	f310                	fsw	fa2,32(a4)
 428:	0001                	nop
 42a:	7400                	flw	fs0,40(s0)
 42c:	0002                	c.slli64	zero
 42e:	0000                	unimp
 430:	00005e0b          	0x5e0b
 434:	f300                	fsw	fs0,32(a4)
 436:	0001                	nop
 438:	0e00                	addi	s0,sp,784
 43a:	0065                	c.nop	25
 43c:	0000                	unimp
 43e:	8d02                	jr	s10
 440:	0000                	unimp
 442:	00005e0b          	0x5e0b
 446:	0500                	addi	s0,sp,640
 448:	0002                	c.slli64	zero
 44a:	0e00                	addi	s0,sp,784
 44c:	0065                	c.nop	25
 44e:	0000                	unimp
 450:	7d02                	flw	fs10,32(sp)
 452:	007f                	0x7f
 454:	041a                	slli	s0,s0,0x6
 456:	0001                	nop
 458:	c800                	sw	s0,16(s0)
 45a:	2c00001b          	0x2c00001b
 45e:	0002                	c.slli64	zero
 460:	0100                	addi	s0,sp,128
 462:	ff9c                	fsw	fa5,56(a5)
 464:	01000007          	0x1000007
 468:	0111                	addi	sp,sp,4
 46a:	0000                	unimp
 46c:	028d                	addi	t0,t0,3
 46e:	0000                	unimp
 470:	1b01                	addi	s6,s6,-32
 472:	0001                	nop
 474:	ff00                	fsw	fs0,56(a4)
 476:	0002                	c.slli64	zero
 478:	0100                	addi	s0,sp,128
 47a:	00000123          	sb	zero,2(zero) # 2 <_start-0xffe>
 47e:	033a                	slli	t1,t1,0xe
 480:	0000                	unimp
 482:	00012b07          	flw	fs6,0(sp) # 0 <_start-0x1000>
 486:	0c00                	addi	s0,sp,528
 488:	0000                	unimp
 48a:	0800                	addi	s0,sp,16
 48c:	012c                	addi	a1,sp,136
 48e:	0000                	unimp
 490:	0375                	addi	t1,t1,29
 492:	0000                	unimp
 494:	0404                	addi	s1,sp,512
 496:	0001                	nop
 498:	0800                	addi	s0,sp,16
 49a:	001c                	0x1c
 49c:	5500                	lw	s0,40(a0)
 49e:	0000                	unimp
 4a0:	4200                	lw	s0,0(a2)
 4a2:	00000507          	0x507
 4a6:	2301                	jal	9a6 <_start-0x65a>
 4a8:	0001                	nop
 4aa:	af00                	fsd	fs0,24(a4)
 4ac:	01000003          	lb	zero,16(zero) # 10 <_start-0xff0>
 4b0:	0000011b          	0x11b
 4b4:	000003e7          	jalr	t2,zero # 0 <_start-0x1000>
 4b8:	1101                	addi	sp,sp,-32
 4ba:	0001                	nop
 4bc:	1f00                	addi	s0,sp,944
 4be:	0004                	0x4
 4c0:	0600                	addi	s0,sp,768
 4c2:	0104                	addi	s1,sp,128
 4c4:	0000                	unimp
 4c6:	1c50                	addi	a2,sp,564
 4c8:	0000                	unimp
 4ca:	008c                	addi	a1,sp,64
 4cc:	0000                	unimp
 4ce:	063a                	slli	a2,a2,0xe
 4d0:	2301                	jal	9d0 <_start-0x630>
 4d2:	0001                	nop
 4d4:	7800                	flw	fs0,48(s0)
 4d6:	0004                	0x4
 4d8:	0100                	addi	s0,sp,128
 4da:	0000011b          	0x11b
 4de:	04a5                	addi	s1,s1,9
 4e0:	0000                	unimp
 4e2:	1101                	addi	sp,sp,-32
 4e4:	0001                	nop
 4e6:	d200                	sw	s0,32(a2)
 4e8:	0004                	0x4
 4ea:	0700                	addi	s0,sp,896
 4ec:	0000012b          	0x12b
 4f0:	00ba                	slli	ra,ra,0xe
 4f2:	0000                	unimp
 4f4:	2c08                	fld	fa0,24(s0)
 4f6:	0001                	nop
 4f8:	2000                	fld	fs0,0(s0)
 4fa:	0005                	c.nop	1
 4fc:	0400                	addi	s0,sp,512
 4fe:	0104                	addi	s1,sp,128
 500:	0000                	unimp
 502:	1c58                	addi	a4,sp,564
 504:	0000                	unimp
 506:	00e8                	addi	a0,sp,76
 508:	0000                	unimp
 50a:	c642                	sw	a6,12(sp)
 50c:	01000003          	lb	zero,16(zero) # 10 <_start-0xff0>
 510:	00000123          	sb	zero,2(zero) # 2 <_start-0xffe>
 514:	054d                	addi	a0,a0,19
 516:	0000                	unimp
 518:	1b01                	addi	s6,s6,-32
 51a:	0001                	nop
 51c:	7a00                	flw	fs0,48(a2)
 51e:	0005                	c.nop	1
 520:	0100                	addi	s0,sp,128
 522:	0111                	addi	sp,sp,4
 524:	0000                	unimp
 526:	000005a7          	0x5a7
 52a:	0406                	slli	s0,s0,0x1
 52c:	0001                	nop
 52e:	b000                	fsd	fs0,32(s0)
 530:	001c                	0x1c
 532:	1600                	addi	s0,sp,800
 534:	0001                	nop
 536:	3a00                	fld	fs0,48(a2)
 538:	0106                	slli	sp,sp,0x1
 53a:	00000123          	sb	zero,2(zero) # 2 <_start-0xffe>
 53e:	05ea                	slli	a1,a1,0x1a
 540:	0000                	unimp
 542:	1b01                	addi	s6,s6,-32
 544:	0001                	nop
 546:	0c00                	addi	s0,sp,528
 548:	0006                	c.slli	zero,0x1
 54a:	0100                	addi	s0,sp,128
 54c:	0111                	addi	sp,sp,4
 54e:	0000                	unimp
 550:	062e                	slli	a2,a2,0xb
 552:	0000                	unimp
 554:	00012b07          	flw	fs6,0(sp)
 558:	3b00                	fld	fs0,48(a4)
 55a:	0001                	nop
 55c:	0800                	addi	s0,sp,16
 55e:	012c                	addi	a1,sp,136
 560:	0000                	unimp
 562:	0666                	slli	a2,a2,0x19
 564:	0000                	unimp
 566:	0404                	addi	s1,sp,512
 568:	0001                	nop
 56a:	b800                	fsd	fs0,48(s0)
 56c:	001c                	0x1c
 56e:	6000                	flw	fs0,0(s0)
 570:	0001                	nop
 572:	4200                	lw	s0,0(a2)
 574:	0355                	addi	t1,t1,21
 576:	0000                	unimp
 578:	2301                	jal	a78 <_start-0x588>
 57a:	0001                	nop
 57c:	a800                	fsd	fs0,16(s0)
 57e:	0006                	c.slli	zero,0x1
 580:	0100                	addi	s0,sp,128
 582:	0000011b          	0x11b
 586:	000006bf 00011101 	0x11101000006bf
 58e:	d600                	sw	s0,40(a2)
 590:	0006                	c.slli	zero,0x1
 592:	0300                	addi	s0,sp,384
 594:	1d74                	addi	a3,sp,700
 596:	0000                	unimp
 598:	0205                	addi	tp,tp,1
 59a:	0000                	unimp
 59c:	0102                	c.slli64	sp
 59e:	025c                	addi	a5,sp,260
 5a0:	0084                	addi	s1,sp,64
 5a2:	0000                	unimp
 5a4:	0404                	addi	s1,sp,512
 5a6:	0001                	nop
 5a8:	c000                	sw	s0,0(s0)
 5aa:	001c                	0x1c
 5ac:	7300                	flw	fs0,32(a4)
 5ae:	0001                	nop
 5b0:	4300                	lw	s0,0(a4)
 5b2:	0399                	addi	t2,t2,6
 5b4:	0000                	unimp
 5b6:	2301                	jal	ab6 <_start-0x54a>
 5b8:	0001                	nop
 5ba:	f800                	fsw	fs0,48(s0)
 5bc:	0006                	c.slli	zero,0x1
 5be:	0100                	addi	s0,sp,128
 5c0:	0000011b          	0x11b
 5c4:	0000070f          	0x70f
 5c8:	1101                	addi	sp,sp,-32
 5ca:	0001                	nop
 5cc:	3300                	fld	fs0,32(a4)
 5ce:	03000007          	0x3000007
 5d2:	1df0                	addi	a2,sp,764
 5d4:	0000                	unimp
 5d6:	0205                	addi	tp,tp,1
 5d8:	0000                	unimp
 5da:	0102                	c.slli64	sp
 5dc:	025a                	slli	tp,tp,0x16
 5de:	01020083          	lb	ra,16(tp) # ffff8010 <stack_top+0x7ffd8010>
 5e2:	025c                	addi	a5,sp,260
 5e4:	0085                	addi	ra,ra,1
 5e6:	0000                	unimp
 5e8:	001cdc03          	lhu	s8,1(s9)
 5ec:	3e00                	fld	fs0,56(a2)
 5ee:	0001                	nop
 5f0:	0200                	addi	s0,sp,256
 5f2:	5a01                	li	s4,-32
 5f4:	8302                	jr	t1
 5f6:	0200                	addi	s0,sp,256
 5f8:	5b01                	li	s6,-32
 5fa:	7802                	flw	fa6,32(sp)
 5fc:	0200                	addi	s0,sp,256
 5fe:	5c01                	li	s8,-32
 600:	790a                	flw	fs2,160(sp)
 602:	7800                	flw	fs0,48(s0)
 604:	1c00                	addi	s0,sp,560
 606:	00782633          	slt	a2,a6,t2
 60a:	0222                	slli	tp,tp,0x8
 60c:	5d01                	li	s10,-32
 60e:	8502                	jr	a0
 610:	0000                	unimp
 612:	0000                	unimp
 614:	0400                	addi	s0,sp,512
 616:	0104                	addi	s1,sp,128
 618:	0000                	unimp
 61a:	1c60                	addi	s0,sp,572
 61c:	0000                	unimp
 61e:	0186                	slli	gp,gp,0x1
 620:	0000                	unimp
 622:	0004e243          	fmadd.s	ft4,fs1,ft0,ft0,unknown
 626:	0100                	addi	s0,sp,128
 628:	00000123          	sb	zero,2(zero) # 2 <_start-0xffe>
 62c:	074a                	slli	a4,a4,0x12
 62e:	0000                	unimp
 630:	1b01                	addi	s6,s6,-32
 632:	0001                	nop
 634:	6c00                	flw	fs0,24(s0)
 636:	01000007          	0x1000007
 63a:	0111                	addi	sp,sp,4
 63c:	0000                	unimp
 63e:	078e                	slli	a5,a5,0x3
 640:	0000                	unimp
 642:	0406                	slli	s0,s0,0x1
 644:	0001                	nop
 646:	e000                	fsw	fs0,0(s0)
 648:	001c                	0x1c
 64a:	a200                	fsd	fs0,0(a2)
 64c:	0001                	nop
 64e:	3a00                	fld	fs0,48(a2)
 650:	0106                	slli	sp,sp,0x1
 652:	00000123          	sb	zero,2(zero) # 2 <_start-0xffe>
 656:	07b0                	addi	a2,sp,968
 658:	0000                	unimp
 65a:	1b01                	addi	s6,s6,-32
 65c:	0001                	nop
 65e:	c700                	sw	s0,8(a4)
 660:	01000007          	0x1000007
 664:	0111                	addi	sp,sp,4
 666:	0000                	unimp
 668:	07de                	slli	a5,a5,0x17
 66a:	0000                	unimp
 66c:	00012b07          	flw	fs6,0(sp)
 670:	a200                	fsd	fs0,0(a2)
 672:	0001                	nop
 674:	0800                	addi	s0,sp,16
 676:	012c                	addi	a1,sp,136
 678:	0000                	unimp
 67a:	07f5                	addi	a5,a5,29
 67c:	0000                	unimp
 67e:	0404                	addi	s1,sp,512
 680:	0001                	nop
 682:	ec00                	fsw	fs0,24(s0)
 684:	001c                	0x1c
 686:	b500                	fsd	fs0,40(a0)
 688:	0001                	nop
 68a:	4200                	lw	s0,0(a2)
 68c:	0479                	addi	s0,s0,30
 68e:	0000                	unimp
 690:	2301                	jal	b90 <_start-0x470>
 692:	0001                	nop
 694:	0c00                	addi	s0,sp,528
 696:	0008                	0x8
 698:	0100                	addi	s0,sp,128
 69a:	0000011b          	0x11b
 69e:	00000823          	sb	zero,16(zero) # 10 <_start-0xff0>
 6a2:	1101                	addi	sp,sp,-32
 6a4:	0001                	nop
 6a6:	3a00                	fld	fs0,48(a2)
 6a8:	0008                	0x8
 6aa:	0300                	addi	s0,sp,384
 6ac:	1d98                	addi	a4,sp,752
 6ae:	0000                	unimp
 6b0:	0205                	addi	tp,tp,1
 6b2:	0000                	unimp
 6b4:	0102                	c.slli64	sp
 6b6:	025a                	slli	tp,tp,0x16
 6b8:	01020083          	lb	ra,16(tp) # 10 <_start-0xff0>
 6bc:	0084025b          	0x84025b
 6c0:	0102                	c.slli64	sp
 6c2:	025c                	addi	a5,sp,260
 6c4:	0086                	slli	ra,ra,0x1
 6c6:	0000                	unimp
 6c8:	0404                	addi	s1,sp,512
 6ca:	0001                	nop
 6cc:	f400                	fsw	fs0,40(s0)
 6ce:	001c                	0x1c
 6d0:	c800                	sw	s0,16(s0)
 6d2:	0001                	nop
 6d4:	4300                	lw	s0,0(a4)
 6d6:	04bd                	addi	s1,s1,15
 6d8:	0000                	unimp
 6da:	2301                	jal	bda <_start-0x426>
 6dc:	0001                	nop
 6de:	5100                	lw	s0,32(a0)
 6e0:	0008                	0x8
 6e2:	0100                	addi	s0,sp,128
 6e4:	0000011b          	0x11b
 6e8:	0868                	addi	a0,sp,28
 6ea:	0000                	unimp
 6ec:	1101                	addi	sp,sp,-32
 6ee:	0001                	nop
 6f0:	8c00                	0x8c00
 6f2:	0008                	0x8
 6f4:	0300                	addi	s0,sp,384
 6f6:	1d84                	addi	s1,sp,752
 6f8:	0000                	unimp
 6fa:	0205                	addi	tp,tp,1
 6fc:	0000                	unimp
 6fe:	0102                	c.slli64	sp
 700:	025a                	slli	tp,tp,0x16
 702:	01020083          	lb	ra,16(tp) # 10 <_start-0xff0>
 706:	025c                	addi	a5,sp,260
 708:	0082                	c.slli64	ra
 70a:	0000                	unimp
 70c:	001d0c03          	lb	s8,1(s10) # fffe4001 <stack_top+0x7ffc4001>
 710:	3e00                	fld	fs0,56(a2)
 712:	0001                	nop
 714:	0200                	addi	s0,sp,256
 716:	5a01                	li	s4,-32
 718:	8302                	jr	t1
 71a:	0200                	addi	s0,sp,256
 71c:	5b01                	li	s6,-32
 71e:	8402                	jr	s0
 720:	0200                	addi	s0,sp,256
 722:	5c01                	li	s8,-32
 724:	8602                	jr	a2
 726:	0200                	addi	s0,sp,256
 728:	5d01                	li	s10,-32
 72a:	8202                	jr	tp
 72c:	0000                	unimp
 72e:	0000                	unimp
 730:	0300                	addi	s0,sp,384
 732:	1c7c                	addi	a5,sp,572
 734:	0000                	unimp
 736:	013e                	slli	sp,sp,0xf
 738:	0000                	unimp
 73a:	0102                	c.slli64	sp
 73c:	025a                	slli	tp,tp,0x16
 73e:	01020083          	lb	ra,16(tp) # 10 <_start-0xff0>
 742:	0078025b          	0x78025b
 746:	0102                	c.slli64	sp
 748:	025c                	addi	a5,sp,260
 74a:	0085                	addi	ra,ra,1
 74c:	0102                	c.slli64	sp
 74e:	025d                	addi	tp,tp,23
 750:	0082                	c.slli64	ra
 752:	0000                	unimp
 754:	0000                	unimp
 756:	0404                	addi	s1,sp,512
 758:	0001                	nop
 75a:	1000                	addi	s0,sp,32
 75c:	001c                	0x1c
 75e:	db00                	sw	s0,48(a4)
 760:	0001                	nop
 762:	4300                	lw	s0,0(a4)
 764:	07cd                	addi	a5,a5,19
 766:	0000                	unimp
 768:	2301                	jal	c68 <_start-0x398>
 76a:	0001                	nop
 76c:	a300                	fsd	fs0,0(a4)
 76e:	0008                	0x8
 770:	0100                	addi	s0,sp,128
 772:	0000011b          	0x11b
 776:	08d0                	addi	a2,sp,84
 778:	0000                	unimp
 77a:	1101                	addi	sp,sp,-32
 77c:	0001                	nop
 77e:	fd00                	fsw	fs0,56(a0)
 780:	0008                	0x8
 782:	0600                	addi	s0,sp,768
 784:	0104                	addi	s1,sp,128
 786:	0000                	unimp
 788:	1c80                	addi	s0,sp,624
 78a:	0000                	unimp
 78c:	0200                	addi	s0,sp,256
 78e:	0000                	unimp
 790:	063a                	slli	a2,a2,0xe
 792:	2301                	jal	c92 <_start-0x36e>
 794:	0001                	nop
 796:	2a00                	fld	fs0,16(a2)
 798:	0009                	c.nop	2
 79a:	0100                	addi	s0,sp,128
 79c:	0000011b          	0x11b
 7a0:	094c                	addi	a1,sp,148
 7a2:	0000                	unimp
 7a4:	1101                	addi	sp,sp,-32
 7a6:	0001                	nop
 7a8:	6e00                	flw	fs0,24(a2)
 7aa:	0009                	c.nop	2
 7ac:	0700                	addi	s0,sp,896
 7ae:	0000012b          	0x12b
 7b2:	0200                	addi	s0,sp,256
 7b4:	0000                	unimp
 7b6:	2c08                	fld	fa0,24(s0)
 7b8:	0001                	nop
 7ba:	9000                	0x9000
 7bc:	0009                	c.nop	2
 7be:	0400                	addi	s0,sp,512
 7c0:	0104                	addi	s1,sp,128
 7c2:	0000                	unimp
 7c4:	1c8c                	addi	a1,sp,624
 7c6:	0000                	unimp
 7c8:	021c                	addi	a5,sp,256
 7ca:	0000                	unimp
 7cc:	8c42                	mv	s8,a6
 7ce:	0006                	c.slli	zero,0x1
 7d0:	0100                	addi	s0,sp,128
 7d2:	00000123          	sb	zero,2(zero) # 2 <_start-0xffe>
 7d6:	09b2                	slli	s3,s3,0xc
 7d8:	0000                	unimp
 7da:	1b01                	addi	s6,s6,-32
 7dc:	0001                	nop
 7de:	d400                	sw	s0,40(s0)
 7e0:	0009                	c.nop	2
 7e2:	0100                	addi	s0,sp,128
 7e4:	0111                	addi	sp,sp,4
 7e6:	0000                	unimp
 7e8:	09f6                	slli	s3,s3,0x1d
 7ea:	0000                	unimp
 7ec:	0406                	slli	s0,s0,0x1
 7ee:	0001                	nop
 7f0:	4000                	lw	s0,0(s0)
 7f2:	001d                	c.nop	7
 7f4:	3800                	fld	fs0,48(s0)
 7f6:	0002                	c.slli64	zero
 7f8:	3a00                	fld	fs0,48(a2)
 7fa:	0106                	slli	sp,sp,0x1
 7fc:	00000123          	sb	zero,2(zero) # 2 <_start-0xffe>
 800:	0a18                	addi	a4,sp,272
 802:	0000                	unimp
 804:	1b01                	addi	s6,s6,-32
 806:	0001                	nop
 808:	2f00                	fld	fs0,24(a4)
 80a:	000a                	c.slli	zero,0x2
 80c:	0100                	addi	s0,sp,128
 80e:	0111                	addi	sp,sp,4
 810:	0000                	unimp
 812:	0a46                	slli	s4,s4,0x11
 814:	0000                	unimp
 816:	00012b07          	flw	fs6,0(sp)
 81a:	4b00                	lw	s0,16(a4)
 81c:	0002                	c.slli64	zero
 81e:	0800                	addi	s0,sp,16
 820:	012c                	addi	a1,sp,136
 822:	0000                	unimp
 824:	0a5d                	addi	s4,s4,23
 826:	0000                	unimp
 828:	0404                	addi	s1,sp,512
 82a:	0001                	nop
 82c:	4800                	lw	s0,16(s0)
 82e:	001d                	c.nop	7
 830:	5e00                	lw	s0,56(a2)
 832:	0002                	c.slli64	zero
 834:	4200                	lw	s0,0(a2)
 836:	00000623          	sb	zero,12(zero) # c <_start-0xff4>
 83a:	2301                	jal	d3a <_start-0x2c6>
 83c:	0001                	nop
 83e:	7400                	flw	fs0,40(s0)
 840:	000a                	c.slli	zero,0x2
 842:	0100                	addi	s0,sp,128
 844:	0000011b          	0x11b
 848:	00000a8b          	0xa8b
 84c:	1101                	addi	sp,sp,-32
 84e:	0001                	nop
 850:	a200                	fsd	fs0,0(a2)
 852:	000a                	c.slli	zero,0x2
 854:	0300                	addi	s0,sp,384
 856:	1dbc                	addi	a5,sp,760
 858:	0000                	unimp
 85a:	0205                	addi	tp,tp,1
 85c:	0000                	unimp
 85e:	0102                	c.slli64	sp
 860:	025a                	slli	tp,tp,0x16
 862:	01020083          	lb	ra,16(tp) # 10 <_start-0xff0>
 866:	0084025b          	0x84025b
 86a:	0102                	c.slli64	sp
 86c:	025c                	addi	a5,sp,260
 86e:	0086                	slli	ra,ra,0x1
 870:	0000                	unimp
 872:	0404                	addi	s1,sp,512
 874:	0001                	nop
 876:	5000                	lw	s0,32(s0)
 878:	001d                	c.nop	7
 87a:	7100                	flw	fs0,32(a0)
 87c:	0002                	c.slli64	zero
 87e:	4300                	lw	s0,0(a4)
 880:	00000667          	jalr	a2,zero # 0 <_start-0x1000>
 884:	2301                	jal	d84 <_start-0x27c>
 886:	0001                	nop
 888:	b900                	fsd	fs0,48(a0)
 88a:	000a                	c.slli	zero,0x2
 88c:	0100                	addi	s0,sp,128
 88e:	0000011b          	0x11b
 892:	0ad0                	addi	a2,sp,340
 894:	0000                	unimp
 896:	1101                	addi	sp,sp,-32
 898:	0001                	nop
 89a:	f400                	fsw	fs0,40(s0)
 89c:	000a                	c.slli	zero,0x2
 89e:	0300                	addi	s0,sp,384
 8a0:	1da8                	addi	a0,sp,760
 8a2:	0000                	unimp
 8a4:	0205                	addi	tp,tp,1
 8a6:	0000                	unimp
 8a8:	0102                	c.slli64	sp
 8aa:	025a                	slli	tp,tp,0x16
 8ac:	01020083          	lb	ra,16(tp) # 10 <_start-0xff0>
 8b0:	025c                	addi	a5,sp,260
 8b2:	0085                	addi	ra,ra,1
 8b4:	0000                	unimp
 8b6:	001d6803          	0x1d6803
 8ba:	3e00                	fld	fs0,56(a2)
 8bc:	0001                	nop
 8be:	0200                	addi	s0,sp,256
 8c0:	5a01                	li	s4,-32
 8c2:	8302                	jr	t1
 8c4:	0200                	addi	s0,sp,256
 8c6:	5b01                	li	s6,-32
 8c8:	8402                	jr	s0
 8ca:	0200                	addi	s0,sp,256
 8cc:	5c01                	li	s8,-32
 8ce:	8602                	jr	a2
 8d0:	0200                	addi	s0,sp,256
 8d2:	5d01                	li	s10,-32
 8d4:	8502                	jr	a0
 8d6:	0000                	unimp
 8d8:	0000                	unimp
 8da:	0400                	addi	s0,sp,512
 8dc:	0104                	addi	s1,sp,128
 8de:	0000                	unimp
 8e0:	1c94                	addi	a3,sp,624
 8e2:	0000                	unimp
 8e4:	0284                	addi	s1,sp,320
 8e6:	0000                	unimp
 8e8:	0007a843          	fmadd.s	fa6,fa5,ft0,ft0,rdn
 8ec:	0100                	addi	s0,sp,128
 8ee:	00000123          	sb	zero,2(zero) # 2 <_start-0xffe>
 8f2:	00000b0b          	0xb0b
 8f6:	1b01                	addi	s6,s6,-32
 8f8:	0001                	nop
 8fa:	2d00                	fld	fs0,24(a0)
 8fc:	0100000b          	0x100000b
 900:	0111                	addi	sp,sp,4
 902:	0000                	unimp
 904:	00000b4f          	fnmadd.s	fs6,ft0,ft0,ft0,rne
 908:	0406                	slli	s0,s0,0x1
 90a:	0001                	nop
 90c:	1000                	addi	s0,sp,32
 90e:	001d                	c.nop	7
 910:	a000                	fsd	fs0,0(s0)
 912:	0002                	c.slli64	zero
 914:	3a00                	fld	fs0,48(a2)
 916:	0106                	slli	sp,sp,0x1
 918:	00000123          	sb	zero,2(zero) # 2 <_start-0xffe>
 91c:	0b71                	addi	s6,s6,28
 91e:	0000                	unimp
 920:	1b01                	addi	s6,s6,-32
 922:	0001                	nop
 924:	8800                	0x8800
 926:	0100000b          	0x100000b
 92a:	0111                	addi	sp,sp,4
 92c:	0000                	unimp
 92e:	0b9f 0000 2b07      	0x2b0700000b9f
 934:	0001                	nop
 936:	b300                	fsd	fs0,32(a4)
 938:	0002                	c.slli64	zero
 93a:	0800                	addi	s0,sp,16
 93c:	012c                	addi	a1,sp,136
 93e:	0000                	unimp
 940:	0bb6                	slli	s7,s7,0xd
 942:	0000                	unimp
 944:	0404                	addi	s1,sp,512
 946:	0001                	nop
 948:	1c00                	addi	s0,sp,560
 94a:	001d                	c.nop	7
 94c:	c600                	sw	s0,8(a2)
 94e:	0002                	c.slli64	zero
 950:	4200                	lw	s0,0(a2)
 952:	0000073f 00012301 	0x123010000073f
 95a:	cd00                	sw	s0,24(a0)
 95c:	0100000b          	0x100000b
 960:	0000011b          	0x11b
 964:	0be4                	addi	s1,sp,476
 966:	0000                	unimp
 968:	1101                	addi	sp,sp,-32
 96a:	0001                	nop
 96c:	fb00                	fsw	fs0,48(a4)
 96e:	0300000b          	0x300000b
 972:	1de0                	addi	s0,sp,764
 974:	0000                	unimp
 976:	0205                	addi	tp,tp,1
 978:	0000                	unimp
 97a:	0102                	c.slli64	sp
 97c:	025a                	slli	tp,tp,0x16
 97e:	01020083          	lb	ra,16(tp) # 10 <_start-0xff0>
 982:	0086025b          	0x86025b
 986:	0102                	c.slli64	sp
 988:	025c                	addi	a5,sp,260
 98a:	00000087          	0x87
 98e:	0404                	addi	s1,sp,512
 990:	0001                	nop
 992:	2400                	fld	fs0,8(s0)
 994:	001d                	c.nop	7
 996:	d900                	sw	s0,48(a0)
 998:	0002                	c.slli64	zero
 99a:	4300                	lw	s0,0(a4)
 99c:	00000783          	lb	a5,0(zero) # 0 <_start-0x1000>
 9a0:	2301                	jal	ea0 <_start-0x160>
 9a2:	0001                	nop
 9a4:	1200                	addi	s0,sp,288
 9a6:	000c                	0xc
 9a8:	0100                	addi	s0,sp,128
 9aa:	0000011b          	0x11b
 9ae:	0c29                	addi	s8,s8,10
 9b0:	0000                	unimp
 9b2:	1101                	addi	sp,sp,-32
 9b4:	0001                	nop
 9b6:	4d00                	lw	s0,24(a0)
 9b8:	000c                	0xc
 9ba:	0300                	addi	s0,sp,384
 9bc:	1dcc                	addi	a1,sp,756
 9be:	0000                	unimp
 9c0:	0205                	addi	tp,tp,1
 9c2:	0000                	unimp
 9c4:	0102                	c.slli64	sp
 9c6:	025a                	slli	tp,tp,0x16
 9c8:	01020083          	lb	ra,16(tp) # 10 <_start-0xff0>
 9cc:	025c                	addi	a5,sp,260
 9ce:	0079                	c.nop	30
 9d0:	0000                	unimp
 9d2:	001d3c03          	0x1d3c03
 9d6:	3e00                	fld	fs0,56(a2)
 9d8:	0001                	nop
 9da:	0200                	addi	s0,sp,256
 9dc:	5a01                	li	s4,-32
 9de:	8302                	jr	t1
 9e0:	0200                	addi	s0,sp,256
 9e2:	5b01                	li	s6,-32
 9e4:	8602                	jr	a2
 9e6:	0200                	addi	s0,sp,256
 9e8:	5c01                	li	s8,-32
 9ea:	8702                	jr	a4
 9ec:	0200                	addi	s0,sp,256
 9ee:	5d01                	li	s10,-32
 9f0:	7902                	flw	fs2,32(sp)
 9f2:	0000                	unimp
 9f4:	0000                	unimp
 9f6:	0300                	addi	s0,sp,384
 9f8:	1cac                	addi	a1,sp,632
 9fa:	0000                	unimp
 9fc:	013e                	slli	sp,sp,0xf
 9fe:	0000                	unimp
 a00:	0102                	c.slli64	sp
 a02:	025a                	slli	tp,tp,0x16
 a04:	01020083          	lb	ra,16(tp) # 10 <_start-0xff0>
 a08:	0084025b          	0x84025b
 a0c:	0102                	c.slli64	sp
 a0e:	025c                	addi	a5,sp,260
 a10:	0085                	addi	ra,ra,1
 a12:	0102                	c.slli64	sp
 a14:	025d                	addi	tp,tp,23
 a16:	0079                	c.nop	30
 a18:	0000                	unimp
 a1a:	0000                	unimp
 a1c:	001c500f          	0x1c500f
 a20:	3e00                	fld	fs0,56(a2)
 a22:	0001                	nop
 a24:	0200                	addi	s0,sp,256
 a26:	5a01                	li	s4,-32
 a28:	5a01a303          	lw	t1,1440(gp)
 a2c:	0102                	c.slli64	sp
 a2e:	01a3035b          	0x1a3035b
 a32:	5c01025b          	0x5c01025b
 a36:	a30d                	j	f58 <_start-0xa8>
 a38:	5c01                	li	s8,-32
 a3a:	1c5b01a3          	sb	t0,451(s6)
 a3e:	2631                	jal	d4a <_start-0x2b6>
 a40:	225b01a3          	sb	t0,547(s6)
 a44:	0102                	c.slli64	sp
 a46:	035d                	addi	t1,t1,23
 a48:	005c01a3          	sb	t0,3(s8) # 19003 <__rodata_end+0x17077>
 a4c:	0000                	unimp
 a4e:	0001041b          	0x1041b
 a52:	f400                	fsw	fs0,40(s0)
 a54:	001d                	c.nop	7
 a56:	2000                	fld	fs0,0(s0)
 a58:	0001                	nop
 a5a:	0100                	addi	s0,sp,128
 a5c:	019c                	addi	a5,sp,192
 a5e:	0111                	addi	sp,sp,4
 a60:	0000                	unimp
 a62:	0c64                	addi	s1,sp,540
 a64:	0000                	unimp
 a66:	1b01                	addi	s6,s6,-32
 a68:	0001                	nop
 a6a:	c000                	sw	s0,0(s0)
 a6c:	000c                	0xc
 a6e:	0100                	addi	s0,sp,128
 a70:	00000123          	sb	zero,2(zero) # 2 <_start-0xffe>
 a74:	00000cfb          	0xcfb
 a78:	0406                	slli	s0,s0,0x1
 a7a:	0001                	nop
 a7c:	0000                	unimp
 a7e:	001e                	c.slli	zero,0x7
 a80:	ec00                	fsw	fs0,24(s0)
 a82:	0002                	c.slli64	zero
 a84:	3a00                	fld	fs0,48(a2)
 a86:	0106                	slli	sp,sp,0x1
 a88:	00000123          	sb	zero,2(zero) # 2 <_start-0xffe>
 a8c:	0d36                	slli	s10,s10,0xd
 a8e:	0000                	unimp
 a90:	1b01                	addi	s6,s6,-32
 a92:	0001                	nop
 a94:	6600                	flw	fs0,8(a2)
 a96:	000d                	c.nop	3
 a98:	0100                	addi	s0,sp,128
 a9a:	0111                	addi	sp,sp,4
 a9c:	0000                	unimp
 a9e:	0d96                	slli	s11,s11,0x5
 aa0:	0000                	unimp
 aa2:	00012b07          	flw	fs6,0(sp)
 aa6:	ec00                	fsw	fs0,24(s0)
 aa8:	0002                	c.slli64	zero
 aaa:	0800                	addi	s0,sp,16
 aac:	012c                	addi	a1,sp,136
 aae:	0000                	unimp
 ab0:	0dfd                	addi	s11,s11,31
 ab2:	0000                	unimp
 ab4:	0404                	addi	s1,sp,512
 ab6:	0001                	nop
 ab8:	3400                	fld	fs0,40(s0)
 aba:	001e                	c.slli	zero,0x7
 abc:	2300                	fld	fs0,0(a4)
 abe:	42000003          	lb	zero,1056(zero) # 420 <_start-0xbe0>
 ac2:	097d                	addi	s2,s2,31
 ac4:	0000                	unimp
 ac6:	2301                	jal	fc6 <_start-0x3a>
 ac8:	0001                	nop
 aca:	3700                	fld	fs0,40(a4)
 acc:	000e                	c.slli	zero,0x3
 ace:	0100                	addi	s0,sp,128
 ad0:	0000011b          	0x11b
 ad4:	0e64                	addi	s1,sp,796
 ad6:	0000                	unimp
 ad8:	1101                	addi	sp,sp,-32
 ada:	0001                	nop
 adc:	9100                	0x9100
 ade:	000e                	c.slli	zero,0x3
 ae0:	0600                	addi	s0,sp,768
 ae2:	0104                	addi	s1,sp,128
 ae4:	0000                	unimp
 ae6:	1e74                	addi	a3,sp,828
 ae8:	0000                	unimp
 aea:	0351                	addi	t1,t1,20
 aec:	0000                	unimp
 aee:	063a                	slli	a2,a2,0xe
 af0:	2301                	jal	ff0 <_start-0x10>
 af2:	0001                	nop
 af4:	d400                	sw	s0,40(s0)
 af6:	000e                	c.slli	zero,0x3
 af8:	0100                	addi	s0,sp,128
 afa:	0000011b          	0x11b
 afe:	0ef6                	slli	t4,t4,0x1d
 b00:	0000                	unimp
 b02:	1101                	addi	sp,sp,-32
 b04:	0001                	nop
 b06:	1800                	addi	s0,sp,48
 b08:	0700000f          	fence	orw,unknown
 b0c:	0000012b          	0x12b
 b10:	0376                	slli	t1,t1,0x1d
 b12:	0000                	unimp
 b14:	2c08                	fld	fa0,24(s0)
 b16:	0001                	nop
 b18:	5000                	lw	s0,32(s0)
 b1a:	0400000f          	fence	o,unknown
 b1e:	0104                	addi	s1,sp,128
 b20:	0000                	unimp
 b22:	1e7c                	addi	a5,sp,828
 b24:	0000                	unimp
 b26:	0000039b          	0x39b
 b2a:	0c42                	slli	s8,s8,0x10
 b2c:	0009                	c.nop	2
 b2e:	0100                	addi	s0,sp,128
 b30:	00000123          	sb	zero,2(zero) # 2 <_start-0xffe>
 b34:	0f92                	slli	t6,t6,0x4
 b36:	0000                	unimp
 b38:	1b01                	addi	s6,s6,-32
 b3a:	0001                	nop
 b3c:	a900                	fsd	fs0,16(a0)
 b3e:	0100000f          	pause
 b42:	0111                	addi	sp,sp,4
 b44:	0000                	unimp
 b46:	0fc0                	addi	s0,sp,980
 b48:	0000                	unimp
 b4a:	001edc03          	lhu	s8,1(t4)
 b4e:	0500                	addi	s0,sp,640
 b50:	0002                	c.slli64	zero
 b52:	0200                	addi	s0,sp,256
 b54:	5c01                	li	s8,-32
 b56:	8402                	jr	s0
 b58:	0000                	unimp
 b5a:	0400                	addi	s0,sp,512
 b5c:	0104                	addi	s1,sp,128
 b5e:	0000                	unimp
 b60:	1e84                	addi	s1,sp,880
 b62:	0000                	unimp
 b64:	03ae                	slli	t2,t2,0xb
 b66:	0000                	unimp
 b68:	00095043          	fmadd.s	ft0,fs2,ft0,ft0,unknown
 b6c:	0100                	addi	s0,sp,128
 b6e:	00000123          	sb	zero,2(zero) # 2 <_start-0xffe>
 b72:	0fe2                	slli	t6,t6,0x18
 b74:	0000                	unimp
 b76:	1b01                	addi	s6,s6,-32
 b78:	0001                	nop
 b7a:	f900                	fsw	fs0,48(a0)
 b7c:	0100000f          	pause
 b80:	0111                	addi	sp,sp,4
 b82:	0000                	unimp
 b84:	101d                	c.nop	-25
 b86:	0000                	unimp
 b88:	001f1003          	lh	zero,1(t5) # 1001 <_start+0x1>
 b8c:	0500                	addi	s0,sp,640
 b8e:	0002                	c.slli64	zero
 b90:	0200                	addi	s0,sp,256
 b92:	5a01                	li	s4,-32
 b94:	8202                	jr	tp
 b96:	0200                	addi	s0,sp,256
 b98:	5c01                	li	s8,-32
 b9a:	8302                	jr	t1
 b9c:	0000                	unimp
 b9e:	0300                	addi	s0,sp,384
 ba0:	1ea0                	addi	s0,sp,888
 ba2:	0000                	unimp
 ba4:	013e                	slli	sp,sp,0xf
 ba6:	0000                	unimp
 ba8:	0102                	c.slli64	sp
 baa:	025a                	slli	tp,tp,0x16
 bac:	0082                	c.slli64	ra
 bae:	0102                	c.slli64	sp
 bb0:	0078025b          	0x78025b
 bb4:	0102                	c.slli64	sp
 bb6:	0a5c                	addi	a5,sp,276
 bb8:	0079                	c.nop	30
 bba:	0078                	addi	a4,sp,12
 bbc:	321c                	fld	fa5,32(a2)
 bbe:	7826                	flw	fa6,104(sp)
 bc0:	2200                	fld	fs0,0(a2)
 bc2:	0102                	c.slli64	sp
 bc4:	025d                	addi	tp,tp,23
 bc6:	00000083          	lb	ra,0(zero) # 0 <_start-0x1000>
 bca:	0000                	unimp
 bcc:	0404                	addi	s1,sp,512
 bce:	0001                	nop
 bd0:	3c00                	fld	fs0,56(s0)
 bd2:	001e                	c.slli	zero,0x7
 bd4:	c100                	sw	s0,0(a0)
 bd6:	43000003          	lb	zero,1072(zero) # 430 <_start-0xbd0>
 bda:	0a99                	addi	s5,s5,6
 bdc:	0000                	unimp
 bde:	2301                	jal	10de <trap_vector+0x36>
 be0:	0001                	nop
 be2:	3400                	fld	fs0,40(s0)
 be4:	0010                	0x10
 be6:	0100                	addi	s0,sp,128
 be8:	0000011b          	0x11b
 bec:	1056                	c.slli	zero,0x35
 bee:	0000                	unimp
 bf0:	1101                	addi	sp,sp,-32
 bf2:	0001                	nop
 bf4:	7800                	flw	fs0,48(s0)
 bf6:	0010                	0x10
 bf8:	0600                	addi	s0,sp,768
 bfa:	0104                	addi	s1,sp,128
 bfc:	0000                	unimp
 bfe:	1ea4                	addi	s1,sp,888
 c00:	0000                	unimp
 c02:	03dd                	addi	t2,t2,23
 c04:	0000                	unimp
 c06:	063a                	slli	a2,a2,0xe
 c08:	2301                	jal	1108 <trap_vector+0x60>
 c0a:	0001                	nop
 c0c:	9a00                	0x9a00
 c0e:	0010                	0x10
 c10:	0100                	addi	s0,sp,128
 c12:	0000011b          	0x11b
 c16:	10b1                	addi	ra,ra,-20
 c18:	0000                	unimp
 c1a:	1101                	addi	sp,sp,-32
 c1c:	0001                	nop
 c1e:	c800                	sw	s0,16(s0)
 c20:	0010                	0x10
 c22:	0700                	addi	s0,sp,896
 c24:	0000012b          	0x12b
 c28:	03dd                	addi	t2,t2,23
 c2a:	0000                	unimp
 c2c:	2c08                	fld	fa0,24(s0)
 c2e:	0001                	nop
 c30:	df00                	sw	s0,56(a4)
 c32:	0010                	0x10
 c34:	0400                	addi	s0,sp,512
 c36:	0104                	addi	s1,sp,128
 c38:	0000                	unimp
 c3a:	1eb0                	addi	a2,sp,888
 c3c:	0000                	unimp
 c3e:	03f0                	addi	a2,sp,460
 c40:	0000                	unimp
 c42:	3042                	fld	ft0,48(sp)
 c44:	000a                	c.slli	zero,0x2
 c46:	0100                	addi	s0,sp,128
 c48:	00000123          	sb	zero,2(zero) # 2 <_start-0xffe>
 c4c:	10f6                	slli	ra,ra,0x3d
 c4e:	0000                	unimp
 c50:	1b01                	addi	s6,s6,-32
 c52:	0001                	nop
 c54:	0d00                	addi	s0,sp,656
 c56:	0011                	c.nop	4
 c58:	0100                	addi	s0,sp,128
 c5a:	0111                	addi	sp,sp,4
 c5c:	0000                	unimp
 c5e:	1124                	addi	s1,sp,168
 c60:	0000                	unimp
 c62:	001f0003          	lb	zero,1(t5)
 c66:	0500                	addi	s0,sp,640
 c68:	0002                	c.slli64	zero
 c6a:	0200                	addi	s0,sp,256
 c6c:	5a01                	li	s4,-32
 c6e:	8202                	jr	tp
 c70:	0200                	addi	s0,sp,256
 c72:	5b01                	li	s6,-32
 c74:	8402                	jr	s0
 c76:	0200                	addi	s0,sp,256
 c78:	5c01                	li	s8,-32
 c7a:	8502                	jr	a0
 c7c:	0000                	unimp
 c7e:	0400                	addi	s0,sp,512
 c80:	0104                	addi	s1,sp,128
 c82:	0000                	unimp
 c84:	1eb8                	addi	a4,sp,888
 c86:	0000                	unimp
 c88:	00000403          	lb	s0,0(zero) # 0 <_start-0x1000>
 c8c:	000a7443          	fmadd.s	fs0,fs4,ft0,ft0
 c90:	0100                	addi	s0,sp,128
 c92:	00000123          	sb	zero,2(zero) # 2 <_start-0xffe>
 c96:	0000113b          	0x113b
 c9a:	1b01                	addi	s6,s6,-32
 c9c:	0001                	nop
 c9e:	5200                	lw	s0,32(a2)
 ca0:	0011                	c.nop	4
 ca2:	0100                	addi	s0,sp,128
 ca4:	0111                	addi	sp,sp,4
 ca6:	0000                	unimp
 ca8:	1176                	slli	sp,sp,0x3d
 caa:	0000                	unimp
 cac:	001eec03          	0x1eec03
 cb0:	0500                	addi	s0,sp,640
 cb2:	0002                	c.slli64	zero
 cb4:	0200                	addi	s0,sp,256
 cb6:	5a01                	li	s4,-32
 cb8:	8202                	jr	tp
 cba:	0200                	addi	s0,sp,256
 cbc:	5c01                	li	s8,-32
 cbe:	7902                	flw	fs2,32(sp)
 cc0:	0000                	unimp
 cc2:	0300                	addi	s0,sp,384
 cc4:	1ed0                	addi	a2,sp,884
 cc6:	0000                	unimp
 cc8:	013e                	slli	sp,sp,0xf
 cca:	0000                	unimp
 ccc:	0102                	c.slli64	sp
 cce:	025a                	slli	tp,tp,0x16
 cd0:	0082                	c.slli64	ra
 cd2:	0102                	c.slli64	sp
 cd4:	0084025b          	0x84025b
 cd8:	0102                	c.slli64	sp
 cda:	025c                	addi	a5,sp,260
 cdc:	0085                	addi	ra,ra,1
 cde:	0102                	c.slli64	sp
 ce0:	025d                	addi	tp,tp,23
 ce2:	0079                	c.nop	30
 ce4:	0000                	unimp
 ce6:	0000                	unimp
 ce8:	001e740f          	0x1e740f
 cec:	3e00                	fld	fs0,56(a2)
 cee:	0001                	nop
 cf0:	0200                	addi	s0,sp,256
 cf2:	5a01                	li	s4,-32
 cf4:	5a01a303          	lw	t1,1440(gp)
 cf8:	0102                	c.slli64	sp
 cfa:	01a3035b          	0x1a3035b
 cfe:	5c01025b          	0x5c01025b
 d02:	a30d                	j	1224 <trap_vector+0x17c>
 d04:	5c01                	li	s8,-32
 d06:	1c5b01a3          	sb	t0,451(s6)
 d0a:	2631                	jal	1016 <_init+0x6>
 d0c:	225b01a3          	sb	t0,547(s6)
 d10:	0102                	c.slli64	sp
 d12:	035d                	addi	t1,t1,23
 d14:	005c01a3          	sb	t0,3(s8)
 d18:	0000                	unimp
	...

Disassembly of section .debug_abbrev:

00000000 <.debug_abbrev>:
   0:	1101                	addi	sp,sp,-32
   2:	1000                	addi	s0,sp,32
   4:	12011117          	auipc	sp,0x12011
   8:	1b0e030f          	0x1b0e030f
   c:	250e                	fld	fa0,192(sp)
   e:	130e                	slli	t1,t1,0x23
  10:	0005                	c.nop	1
  12:	0000                	unimp
  14:	2401                	jal	214 <_start-0xdec>
  16:	0b00                	addi	s0,sp,400
  18:	030b3e0b          	0x30b3e0b
  1c:	000e                	c.slli	zero,0x3
  1e:	0200                	addi	s0,sp,256
  20:	0034                	addi	a3,sp,8
  22:	213a0e03          	lb	t3,531(s4) # 2213 <__rodata_end+0x287>
  26:	3b01                	jal	fffffd36 <stack_top+0x7ffdfd36>
  28:	0c21390b          	0xc21390b
  2c:	1349                	addi	t1,t1,-14
  2e:	193c193f 05030000 	0x5030000193c193f
  36:	3100                	fld	fs0,32(a0)
  38:	04000013          	li	zero,64
  3c:	0034                	addi	a3,sp,8
  3e:	213a0803          	lb	a6,531(s4)
  42:	3b01                	jal	fffffd52 <stack_top+0x7ffdfd52>
  44:	490b390b          	0x490b390b
  48:	05000013          	li	zero,80
  4c:	0005                	c.nop	1
  4e:	213a0e03          	lb	t3,531(s4)
  52:	3b01                	jal	fffffd62 <stack_top+0x7ffdfd62>
  54:	490b390b          	0x490b390b
  58:	06000013          	li	zero,96
  5c:	0005                	c.nop	1
  5e:	213a0803          	lb	a6,531(s4)
  62:	3b01                	jal	fffffd72 <stack_top+0x7ffdfd72>
  64:	490b390b          	0x490b390b
  68:	07000013          	li	zero,112
  6c:	210b000f          	0x210b000f
  70:	4904                	lw	s1,16(a0)
  72:	08000013          	li	zero,128
  76:	0016                	c.slli	zero,0x5
  78:	0b3a0e03          	lb	t3,179(s4)
  7c:	0b390b3b          	0xb390b3b
  80:	1349                	addi	t1,t1,-14
  82:	0000                	unimp
  84:	0509                	addi	a0,a0,2
  86:	3100                	fld	fs0,32(a0)
  88:	00170213          	addi	tp,a4,1 # 7001 <__rodata_end+0x5075>
  8c:	0a00                	addi	s0,sp,272
  8e:	0034                	addi	a3,sp,8
  90:	1331                	addi	t1,t1,-20
  92:	0000                	unimp
  94:	31010b0b          	0x31010b0b
  98:	12011113          	0x12011113
  9c:	0006                	c.slli	zero,0x1
  9e:	0c00                	addi	s0,sp,528
  a0:	0034                	addi	a3,sp,8
  a2:	1331                	addi	t1,t1,-20
  a4:	1702                	slli	a4,a4,0x20
  a6:	0000                	unimp
  a8:	2e0d                	jal	3da <_start-0xc26>
  aa:	0301                	addi	t1,t1,0
  ac:	3a0e                	fld	fs4,224(sp)
  ae:	0121                	addi	sp,sp,8
  b0:	21390b3b          	0x21390b3b
  b4:	270e                	fld	fa4,192(sp)
  b6:	4919                	li	s2,6
  b8:	01212013          	slti	zero,sp,18
  bc:	1301                	addi	t1,t1,-32
  be:	0000                	unimp
  c0:	0b0e                	slli	s6,s6,0x3
  c2:	0001                	nop
  c4:	0f00                	addi	s0,sp,912
  c6:	0111                	addi	sp,sp,4
  c8:	0e25                	addi	t3,t3,9
  ca:	1f030b13          	addi	s6,t1,496 # ffff91f0 <stack_top+0x7ffd91f0>
  ce:	01111f1b          	0x1111f1b
  d2:	0612                	slli	a2,a2,0x4
  d4:	1710                	addi	a2,sp,928
  d6:	0000                	unimp
  d8:	2610                	fld	fa2,8(a2)
  da:	4900                	lw	s0,16(a0)
  dc:	11000013          	li	zero,272
  e0:	0024                	addi	s1,sp,8
  e2:	0b3e0b0b          	0xb3e0b0b
  e6:	00000803          	lb	a6,0(zero) # 0 <_start-0x1000>
  ea:	2e12                	fld	ft8,256(sp)
  ec:	3f01                	jal	fffffffc <stack_top+0x7ffdfffc>
  ee:	0319                	addi	t1,t1,6
  f0:	3a0e                	fld	fs4,224(sp)
  f2:	390b3b0b          	0x390b3b0b
  f6:	1201110b          	0x1201110b
  fa:	4006                	0x4006
  fc:	7a18                	flw	fa4,48(a2)
  fe:	0119                	addi	sp,sp,6
 100:	13000013          	li	zero,304
 104:	0034                	addi	a3,sp,8
 106:	0b3a0e03          	lb	t3,179(s4)
 10a:	0b390b3b          	0xb390b3b
 10e:	1349                	addi	t1,t1,-14
 110:	1702                	slli	a4,a4,0x20
 112:	0000                	unimp
 114:	3414                	fld	fa3,40(s0)
 116:	0300                	addi	s0,sp,384
 118:	3a0e                	fld	fs4,224(sp)
 11a:	390b3b0b          	0x390b3b0b
 11e:	0213490b          	0x213490b
 122:	0018                	0x18
 124:	1500                	addi	s0,sp,672
 126:	011d                	addi	sp,sp,7
 128:	1331                	addi	t1,t1,-20
 12a:	0111                	addi	sp,sp,4
 12c:	0612                	slli	a2,a2,0x4
 12e:	0b58                	addi	a4,sp,404
 130:	0b59                	addi	s6,s6,22
 132:	13010b57          	0x13010b57
 136:	0000                	unimp
 138:	3416                	fld	fs0,352(sp)
 13a:	3100                	fld	fs0,32(a0)
 13c:	000d1c13          	slli	s8,s10,0x0
 140:	1700                	addi	s0,sp,928
 142:	011d                	addi	sp,sp,7
 144:	1331                	addi	t1,t1,-20
 146:	0111                	addi	sp,sp,4
 148:	0612                	slli	a2,a2,0x4
 14a:	0b58                	addi	a4,sp,404
 14c:	0b59                	addi	s6,s6,22
 14e:	00000b57          	0xb57
 152:	0f18                	addi	a4,sp,912
 154:	0b00                	addi	s0,sp,400
 156:	1900000b          	0x1900000b
 15a:	0034                	addi	a3,sp,8
 15c:	0b3a0e03          	lb	t3,179(s4)
 160:	0b390b3b          	0xb390b3b
 164:	1349                	addi	t1,t1,-14
 166:	0000                	unimp
 168:	261a                	fld	fa2,384(sp)
 16a:	0000                	unimp
 16c:	0000                	unimp
 16e:	0501                	addi	a0,a0,0
 170:	3100                	fld	fs0,32(a0)
 172:	00170213          	addi	tp,a4,1
 176:	0200                	addi	s0,sp,256
 178:	0049                	c.nop	18
 17a:	1802                	slli	a6,a6,0x20
 17c:	187e                	slli	a6,a6,0x3f
 17e:	0000                	unimp
 180:	7d014803          	lbu	a6,2000(sp) # 120117d4 <__rodata_end+0x1200f848>
 184:	7f01                	lui	t5,0xfffe0
 186:	04000013          	li	zero,64
 18a:	011d                	addi	sp,sp,7
 18c:	1331                	addi	t1,t1,-20
 18e:	0152                	slli	sp,sp,0x14
 190:	1755                	addi	a4,a4,-11
 192:	2158                	fld	fa4,128(a0)
 194:	5901                	li	s2,-32
 196:	0921570b          	0x921570b
 19a:	1301                	addi	t1,t1,-32
 19c:	0000                	unimp
 19e:	2405                	jal	3be <_start-0xc42>
 1a0:	0b00                	addi	s0,sp,400
 1a2:	030b3e0b          	0x30b3e0b
 1a6:	000e                	c.slli	zero,0x3
 1a8:	0600                	addi	s0,sp,768
 1aa:	011d                	addi	sp,sp,7
 1ac:	1331                	addi	t1,t1,-20
 1ae:	0152                	slli	sp,sp,0x14
 1b0:	1755                	addi	a4,a4,-11
 1b2:	2158                	fld	fa4,128(a0)
 1b4:	5901                	li	s2,-32
 1b6:	000b570b          	0xb570b
 1ba:	0700                	addi	s0,sp,896
 1bc:	1331010b          	0x1331010b
 1c0:	1755                	addi	a4,a4,-11
 1c2:	0000                	unimp
 1c4:	3408                	fld	fa0,40(s0)
 1c6:	3100                	fld	fs0,32(a0)
 1c8:	00170213          	addi	tp,a4,1
 1cc:	0900                	addi	s0,sp,144
 1ce:	0034                	addi	a3,sp,8
 1d0:	213a0803          	lb	a6,531(s4)
 1d4:	3b01                	jal	fffffee4 <stack_top+0x7ffdfee4>
 1d6:	490b390b          	0x490b390b
 1da:	00170213          	addi	tp,a4,1
 1de:	0a00                	addi	s0,sp,272
 1e0:	0005                	c.nop	1
 1e2:	213a0803          	lb	a6,531(s4)
 1e6:	3b01                	jal	fffffef6 <stack_top+0x7ffdfef6>
 1e8:	0821                	addi	a6,a6,8
 1ea:	0b39                	addi	s6,s6,14
 1ec:	1349                	addi	t1,t1,-14
 1ee:	1702                	slli	a4,a4,0x20
 1f0:	0000                	unimp
 1f2:	4901010b          	0x4901010b
 1f6:	00130113          	addi	sp,t1,1
 1fa:	0c00                	addi	s0,sp,528
 1fc:	0005                	c.nop	1
 1fe:	213a0803          	lb	a6,531(s4)
 202:	3b01                	jal	ffffff12 <stack_top+0x7ffdff12>
 204:	3a21                	jal	fffffb1c <stack_top+0x7ffdfb1c>
 206:	0b39                	addi	s6,s6,14
 208:	1349                	addi	t1,t1,-14
 20a:	0000                	unimp
 20c:	340d                	jal	fffffc2e <stack_top+0x7ffdfc2e>
 20e:	0300                	addi	s0,sp,384
 210:	3a08                	fld	fa0,48(a2)
 212:	0121                	addi	sp,sp,8
 214:	21390b3b          	0x21390b3b
 218:	4909                	li	s2,2
 21a:	00180213          	addi	tp,a6,1
 21e:	0e00                	addi	s0,sp,784
 220:	0021                	c.nop	8
 222:	1349                	addi	t1,t1,-14
 224:	0000182f          	0x182f
 228:	7d01480f          	0x7d01480f
 22c:	8201                	c.srli64	a2
 22e:	1901                	addi	s2,s2,-32
 230:	137f                	0x137f
 232:	0000                	unimp
 234:	1110                	addi	a2,sp,160
 236:	2501                	jal	836 <_start-0x7ca>
 238:	130e                	slli	t1,t1,0x23
 23a:	1b1f030b          	0x1b1f030b
 23e:	551f 1117 1001      	0x10011117551f
 244:	11000017          	auipc	zero,0x11000
 248:	0024                	addi	s1,sp,8
 24a:	0b3e0b0b          	0xb3e0b0b
 24e:	00000803          	lb	a6,0(zero) # 0 <_start-0x1000>
 252:	2e12                	fld	ft8,256(sp)
 254:	3f01                	jal	164 <_start-0xe9c>
 256:	0319                	addi	t1,t1,6
 258:	3a0e                	fld	fs4,224(sp)
 25a:	390b3b0b          	0x390b3b0b
 25e:	1113490b          	0x1113490b
 262:	1201                	addi	tp,tp,-32
 264:	4006                	0x4006
 266:	7a18                	flw	fa4,48(a2)
 268:	0119                	addi	sp,sp,6
 26a:	13000013          	li	zero,304
 26e:	0034                	addi	a3,sp,8
 270:	0b3a0e03          	lb	t3,179(s4)
 274:	0b390b3b          	0xb390b3b
 278:	1349                	addi	t1,t1,-14
 27a:	0b1c                	addi	a5,sp,400
 27c:	0000                	unimp
 27e:	2114                	fld	fa3,0(a0)
 280:	4900                	lw	s0,16(a0)
 282:	000b2f13          	slti	t5,s6,0
 286:	1500                	addi	s0,sp,672
 288:	012e                	slli	sp,sp,0xb
 28a:	0e03193f 0b3b0b3a 	0xb3b0b3a0e03193f
 292:	0b39                	addi	s6,s6,14
 294:	0b201927          	0xb201927
 298:	1301                	addi	t1,t1,-32
 29a:	0000                	unimp
 29c:	0b16                	slli	s6,s6,0x5
 29e:	0001                	nop
 2a0:	1700                	addi	s0,sp,928
 2a2:	0034                	addi	a3,sp,8
 2a4:	0b3a0803          	lb	a6,179(s4)
 2a8:	0b390b3b          	0xb390b3b
 2ac:	1349                	addi	t1,t1,-14
 2ae:	0000                	unimp
 2b0:	0f18                	addi	a4,sp,912
 2b2:	0b00                	addi	s0,sp,400
 2b4:	0013490b          	0x13490b
 2b8:	1900                	addi	s0,sp,176
 2ba:	012e                	slli	sp,sp,0xb
 2bc:	0e03193f 0b3b0b3a 	0xb3b0b3a0e03193f
 2c4:	0b39                	addi	s6,s6,14
 2c6:	01111927          	0x1111927
 2ca:	0612                	slli	a2,a2,0x4
 2cc:	1840                	addi	s0,sp,52
 2ce:	197a                	slli	s2,s2,0x3e
 2d0:	1301                	addi	t1,t1,-32
 2d2:	0000                	unimp
 2d4:	2e1a                	fld	ft8,384(sp)
 2d6:	3101                	jal	fffffed6 <stack_top+0x7ffdfed6>
 2d8:	12011113          	0x12011113
 2dc:	4006                	0x4006
 2de:	7a18                	flw	fa4,48(a2)
 2e0:	0119                	addi	sp,sp,6
 2e2:	1b000013          	li	zero,432
 2e6:	012e                	slli	sp,sp,0xb
 2e8:	1331                	addi	t1,t1,-20
 2ea:	0111                	addi	sp,sp,4
 2ec:	0612                	slli	a2,a2,0x4
 2ee:	1840                	addi	s0,sp,52
 2f0:	197a                	slli	s2,s2,0x3e
 2f2:	0000                	unimp
	...

Disassembly of section .debug_aranges:

00000000 <.debug_aranges>:
   0:	001c                	0x1c
   2:	0000                	unimp
   4:	0002                	c.slli64	zero
   6:	0000                	unimp
   8:	0000                	unimp
   a:	0004                	0x4
   c:	0000                	unimp
   e:	0000                	unimp
  10:	1000                	addi	s0,sp,32
  12:	0000                	unimp
  14:	09b8                	addi	a4,sp,216
	...
  1e:	0000                	unimp
  20:	001c                	0x1c
  22:	0000                	unimp
  24:	0002                	c.slli64	zero
  26:	0025                	c.nop	9
  28:	0000                	unimp
  2a:	0004                	0x4
  2c:	0000                	unimp
  2e:	0000                	unimp
  30:	19bc                	addi	a5,sp,248
  32:	0000                	unimp
  34:	0074                	addi	a3,sp,12
	...
  3e:	0000                	unimp
  40:	0024                	addi	s1,sp,8
  42:	0000                	unimp
  44:	0002                	c.slli64	zero
  46:	0000024f          	fnmadd.s	ft4,ft0,ft0,ft0,rne
  4a:	0004                	0x4
  4c:	0000                	unimp
  4e:	0000                	unimp
  50:	1a30                	addi	a2,sp,312
  52:	0000                	unimp
  54:	04e4                	addi	s1,sp,588
  56:	0000                	unimp
  58:	1f14                	addi	a3,sp,944
  5a:	0000                	unimp
  5c:	0060                	addi	s0,sp,12
	...

Disassembly of section .debug_str:

00000000 <.debug_str>:
   0:	7372                	flw	ft6,60(sp)
   2:	2d64                	fld	fs1,216(a0)
   4:	2e747263          	bgeu	s0,t2,2e8 <_start-0xd18>
   8:	682f0073          	0x682f0073
   c:	2f656d6f          	jal	s10,56302 <__rodata_end+0x54376>
  10:	726a                	flw	ft4,184(sp)
  12:	656d                	lui	a0,0x1b
  14:	6b72                	flw	fs6,28(sp)
  16:	6c65                	lui	s8,0x19
  18:	636f442f          	0x636f442f
  1c:	6d75                	lui	s10,0x1d
  1e:	6e65                	lui	t3,0x19
  20:	7374                	flw	fa3,100(a4)
  22:	6863532f          	0x6863532f
  26:	2f6c6f6f          	jal	t5,c631c <__rodata_end+0xc4390>
  2a:	3835                	jal	fffff866 <stack_top+0x7ffdf866>
  2c:	2f31                	jal	748 <_start-0x8b8>
  2e:	7270                	flw	fa2,100(a2)
  30:	722f6a6f          	jal	s4,f6752 <__rodata_end+0xf47c6>
  34:	502f6473          	csrrsi	s0,0x502,30
  38:	6f72                	flw	ft10,28(sp)
  3a:	73736563          	bltu	t1,s7,764 <_start-0x89c>
  3e:	532f726f          	jal	tp,f7570 <__rodata_end+0xf55e4>
  42:	6372                	flw	ft6,28(sp)
  44:	7265562f          	0x7265562f
  48:	6669                	lui	a2,0x1a
  4a:	6369                	lui	t1,0x1a
  4c:	7461                	lui	s0,0xffff8
  4e:	6f69                	lui	t5,0x1a
  50:	2f6e                	fld	ft10,216(sp)
  52:	6554                	flw	fa3,12(a0)
  54:	6f437473          	csrrci	s0,0x6f4,6
  58:	6564                	flw	fs1,76(a0)
  5a:	462f432f          	0x462f432f
  5e:	6269                	lui	tp,0x1a
  60:	63616e6f          	jal	t3,16696 <__rodata_end+0x1470a>
  64:	47006963          	bltu	zero,a6,4d6 <_start-0xb2a>
  68:	554e                	lw	a0,240(sp)
  6a:	4120                	lw	s0,64(a0)
  6c:	2e322053          	0x2e322053
  70:	73003733          	0x73003733
  74:	7a69                	lui	s4,0xffffa
  76:	5f65                	li	t5,-7
  78:	0074                	addi	a3,sp,12
  7a:	5f5f 6164 6174      	0x617461645f5f
  80:	655f 646e 5f00      	0x5f00646e655f
  86:	725f 646f 7461      	0x7461646f725f
  8c:	5f61                	li	t5,-8
  8e:	6e65                	lui	t3,0x19
  90:	0064                	addi	s1,sp,12
  92:	6164                	flw	fs1,68(a0)
  94:	6174                	flw	fa3,68(a0)
  96:	735f 7a69 0065      	0x657a69735f
  9c:	5f637273          	csrrci	tp,0x5f6,6
  a0:	7500                	flw	fs0,40(a0)
  a2:	736e                	flw	ft6,248(sp)
  a4:	6769                	lui	a4,0x1a
  a6:	656e                	flw	fa0,216(sp)
  a8:	2064                	fld	fs1,192(s0)
  aa:	72616863          	bltu	sp,t1,7da <_start-0x826>
  ae:	7300                	flw	fs0,32(a4)
  b0:	6f68                	flw	fa0,92(a4)
  b2:	7472                	flw	fs0,60(sp)
  b4:	7520                	flw	fs0,104(a0)
  b6:	736e                	flw	ft6,248(sp)
  b8:	6769                	lui	a4,0x1a
  ba:	656e                	flw	fa0,216(sp)
  bc:	2064                	fld	fs1,192(s0)
  be:	6e69                	lui	t3,0x1a
  c0:	0074                	addi	a3,sp,12
  c2:	6c5f 616f 0064      	0x64616f6c5f
  c8:	725f 6473 6d5f      	0x6d5f6473725f
  ce:	6d65                	lui	s10,0x19
  d0:	00746573          	csrrsi	a0,0x7,8
  d4:	6564                	flw	fs1,76(a0)
  d6:	62007473          	csrrci	s0,0x620,0
  da:	735f7373          	csrrci	t1,0x735,30
  de:	7a69                	lui	s4,0xffffa
  e0:	0065                	c.nop	25
  e2:	6564                	flw	fs1,76(a0)
  e4:	005f7473          	csrrci	s0,utvec,30
  e8:	5f5f 7362 5f73      	0x5f7373625f5f
  ee:	72617473          	csrrci	s0,0x726,2
  f2:	0074                	addi	a3,sp,12
  f4:	6f6c                	flw	fa1,92(a4)
  f6:	676e                	flw	fa4,216(sp)
  f8:	6c20                	flw	fs0,88(s0)
  fa:	20676e6f          	jal	t3,76300 <__rodata_end+0x74374>
  fe:	6e75                	lui	t3,0x1d
 100:	6e676973          	csrrsi	s2,0x6e6,14
 104:	6465                	lui	s0,0x19
 106:	6920                	flw	fs0,80(a0)
 108:	746e                	flw	fs0,248(sp)
 10a:	7500                	flw	fs0,40(a0)
 10c:	6e69                	lui	t3,0x1a
 10e:	3874                	fld	fa3,240(s0)
 110:	745f 5f00 625f      	0x625f5f00745f
 116:	655f7373          	csrrci	t1,0x655,30
 11a:	646e                	flw	fs0,216(sp)
 11c:	6c00                	flw	fs0,24(s0)
 11e:	20676e6f          	jal	t3,76324 <__rodata_end+0x74398>
 122:	6f6c                	flw	fa1,92(a4)
 124:	676e                	flw	fa4,216(sp)
 126:	6920                	flw	fs0,80(a0)
 128:	746e                	flw	fs0,248(sp)
 12a:	5f00                	lw	s0,56(a4)
 12c:	7372                	flw	ft6,60(sp)
 12e:	5f64                	lw	s1,124(a4)
 130:	656d                	lui	a0,0x1b
 132:	636d                	lui	t1,0x1b
 134:	7970                	flw	fa2,116(a0)
 136:	7300                	flw	fs0,32(a4)
 138:	6f68                	flw	fa0,92(a4)
 13a:	7472                	flw	fs0,60(sp)
 13c:	6920                	flw	fs0,80(a0)
 13e:	746e                	flw	fs0,248(sp)
 140:	5f00                	lw	s0,56(a4)
 142:	645f 7461 5f61      	0x5f617461645f
 148:	72617473          	csrrci	s0,0x726,2
 14c:	0074                	addi	a3,sp,12
 14e:	20554e47          	fmsub.s	ft8,fa0,ft5,ft4,rmm
 152:	20373143          	fmadd.s	ft2,fa4,ft3,ft4,rup
 156:	3131                	jal	fffffd62 <stack_top+0x7ffdfd62>
 158:	312e                	fld	ft2,232(sp)
 15a:	302e                	fld	ft0,232(sp)
 15c:	2d20                	fld	fs0,88(a0)
 15e:	736d                	lui	t1,0xffffb
 160:	7274                	flw	fa3,100(a2)
 162:	6369                	lui	t1,0x1a
 164:	2d74                	fld	fa3,216(a0)
 166:	6c61                	lui	s8,0x18
 168:	6769                	lui	a4,0x1a
 16a:	206e                	fld	ft0,216(sp)
 16c:	6d2d                	lui	s10,0xb
 16e:	7261                	lui	tp,0xffff8
 170:	723d6863          	bltu	s10,gp,8a0 <_start-0x760>
 174:	3376                	fld	ft6,376(sp)
 176:	6932                	flw	fs2,12(sp)
 178:	206d                	jal	222 <_start-0xdde>
 17a:	6d2d                	lui	s10,0xb
 17c:	7574                	flw	fa3,108(a0)
 17e:	656e                	flw	fa0,216(sp)
 180:	723d                	lui	tp,0xfffef
 182:	656b636f          	jal	t1,b67d8 <__rodata_end+0xb484c>
 186:	2074                	fld	fa3,192(s0)
 188:	6d2d                	lui	s10,0xb
 18a:	6261                	lui	tp,0x18
 18c:	3d69                	jal	26 <_start-0xfda>
 18e:	6c69                	lui	s8,0x1a
 190:	3370                	fld	fa2,224(a4)
 192:	2032                	fld	ft0,264(sp)
 194:	6d2d                	lui	s10,0xb
 196:	7261                	lui	tp,0xffff8
 198:	723d6863          	bltu	s10,gp,8c8 <_start-0x738>
 19c:	3376                	fld	ft6,376(sp)
 19e:	6932                	flw	fs2,12(sp)
 1a0:	206d                	jal	24a <_start-0xdb6>
 1a2:	672d                	lui	a4,0xb
 1a4:	2d20                	fld	fs0,88(a0)
 1a6:	2d20334f          	0x2d20334f
 1aa:	6e66                	flw	ft8,88(sp)
 1ac:	74732d6f          	jal	s10,330f2 <__rodata_end+0x31166>
 1b0:	6361                	lui	t1,0x18
 1b2:	72702d6b          	0x72702d6b
 1b6:	6365746f          	jal	s0,577ec <__rodata_end+0x55860>
 1ba:	6f74                	flw	fa3,92(a4)
 1bc:	2072                	fld	ft0,280(sp)
 1be:	662d                	lui	a2,0xb
 1c0:	6f6e                	flw	ft10,216(sp)
 1c2:	7a2d                	lui	s4,0xfffeb
 1c4:	7265                	lui	tp,0xffff9
 1c6:	6e692d6f          	jal	s10,928ac <__rodata_end+0x90920>
 1ca:	7469                	lui	s0,0xffffa
 1cc:	6169                	addi	sp,sp,208
 1ce:	696c                	flw	fa1,84(a0)
 1d0:	657a                	flw	fa0,156(sp)
 1d2:	2d64                	fld	fs1,216(a0)
 1d4:	6e69                	lui	t3,0x1a
 1d6:	622d                	lui	tp,0xb
 1d8:	2d207373          	csrrci	t1,0x2d2,0
 1dc:	6666                	flw	fa2,88(sp)
 1de:	6572                	flw	fa0,28(sp)
 1e0:	7365                	lui	t1,0xffff9
 1e2:	6174                	flw	fa3,68(a0)
 1e4:	646e                	flw	fs0,216(sp)
 1e6:	6e69                	lui	t3,0x1a
 1e8:	662d2067          	0x662d2067
 1ec:	6f6e                	flw	ft10,216(sp)
 1ee:	622d                	lui	tp,0xb
 1f0:	6975                	lui	s2,0x1d
 1f2:	746c                	flw	fa1,108(s0)
 1f4:	6e69                	lui	t3,0x1a
 1f6:	7300                	flw	fs0,32(a4)
 1f8:	7274                	flw	fa3,100(a2)
 1fa:	005f 6f6c 676e      	0x676e6f6c005f
 200:	6420                	flw	fs0,72(s0)
 202:	6c62756f          	jal	a0,278c8 <__rodata_end+0x2593c>
 206:	0065                	c.nop	25
 208:	616d                	addi	sp,sp,240
 20a:	6e69                	lui	t3,0x1a
 20c:	4700                	lw	s0,8(a4)
 20e:	554e                	lw	a0,240(sp)
 210:	4320                	lw	s0,64(a4)
 212:	3731                	jal	11e <_start-0xee2>
 214:	3120                	fld	fs0,96(a0)
 216:	2e31                	jal	532 <_start-0xace>
 218:	2e31                	jal	534 <_start-0xacc>
 21a:	2030                	fld	fa2,64(s0)
 21c:	6d2d                	lui	s10,0xb
 21e:	69727473          	csrrci	s0,0x697,4
 222:	612d7463          	bgeu	s10,s2,82a <_start-0x7d6>
 226:	696c                	flw	fa1,84(a0)
 228:	2d206e67          	0x2d206e67
 22c:	616d                	addi	sp,sp,240
 22e:	6372                	flw	ft6,28(sp)
 230:	3d68                	fld	fa0,248(a0)
 232:	7672                	flw	fa2,60(sp)
 234:	6d693233          	0x6d693233
 238:	2d20                	fld	fs0,88(a0)
 23a:	746d                	lui	s0,0xffffb
 23c:	6e75                	lui	t3,0x1d
 23e:	3d65                	jal	f6 <_start-0xf0a>
 240:	6f72                	flw	ft10,28(sp)
 242:	74656b63          	bltu	a0,t1,998 <_start-0x668>
 246:	2d20                	fld	fs0,88(a0)
 248:	616d                	addi	sp,sp,240
 24a:	6962                	flw	fs2,24(sp)
 24c:	693d                	lui	s2,0xf
 24e:	706c                	flw	fa1,100(s0)
 250:	2d203233          	0x2d203233
 254:	616d                	addi	sp,sp,240
 256:	6372                	flw	ft6,28(sp)
 258:	3d68                	fld	fa0,248(a0)
 25a:	7672                	flw	fa2,60(sp)
 25c:	6d693233          	0x6d693233
 260:	2d20                	fld	fs0,88(a0)
 262:	672d2067          	0x672d2067
 266:	2d20                	fld	fs0,88(a0)
 268:	2d20334f          	0x2d20334f
 26c:	6e66                	flw	ft8,88(sp)
 26e:	74732d6f          	jal	s10,331b4 <__rodata_end+0x31228>
 272:	6361                	lui	t1,0x18
 274:	72702d6b          	0x72702d6b
 278:	6365746f          	jal	s0,578ae <__rodata_end+0x55922>
 27c:	6f74                	flw	fa3,92(a4)
 27e:	2072                	fld	ft0,280(sp)
 280:	662d                	lui	a2,0xb
 282:	6f6e                	flw	ft10,216(sp)
 284:	7a2d                	lui	s4,0xfffeb
 286:	7265                	lui	tp,0xffff9
 288:	6e692d6f          	jal	s10,9296e <__rodata_end+0x909e2>
 28c:	7469                	lui	s0,0xffffa
 28e:	6169                	addi	sp,sp,208
 290:	696c                	flw	fa1,84(a0)
 292:	657a                	flw	fa0,156(sp)
 294:	2d64                	fld	fs1,216(a0)
 296:	6e69                	lui	t3,0x1a
 298:	622d                	lui	tp,0xb
 29a:	2d207373          	csrrci	t1,0x2d2,0
 29e:	6666                	flw	fa2,88(sp)
 2a0:	6572                	flw	fa0,28(sp)
 2a2:	7365                	lui	t1,0xffff9
 2a4:	6174                	flw	fa3,68(a0)
 2a6:	646e                	flw	fs0,216(sp)
 2a8:	6e69                	lui	t3,0x1a
 2aa:	662d2067          	0x662d2067
 2ae:	6f6e                	flw	ft10,216(sp)
 2b0:	622d                	lui	tp,0xb
 2b2:	6975                	lui	s2,0x1d
 2b4:	746c                	flw	fa1,108(s0)
 2b6:	6e69                	lui	t3,0x1a
 2b8:	6100                	flw	fs0,0(a0)
 2ba:	7272                	flw	ft4,60(sp)
 2bc:	735f 7a69 0065      	0x657a69735f
 2c2:	656d                	lui	a0,0x1b
 2c4:	6772                	flw	fa4,28(sp)
 2c6:	5365                	li	t1,-7
 2c8:	0074726f          	jal	tp,47ace <__rodata_end+0x45b42>
 2cc:	656d                	lui	a0,0x1b
 2ce:	6772                	flw	fa4,28(sp)
 2d0:	0065                	c.nop	25

Disassembly of section .debug_loclists:

00000000 <.debug_loclists>:
       0:	004a                	c.slli	zero,0x12
       2:	0000                	unimp
       4:	0005                	c.nop	1
       6:	0004                	0x4
       8:	0000                	unimp
       a:	0000                	unimp
       c:	0019e007          	0x19e007
      10:	fc00                	fsw	fs0,56(s0)
      12:	0019                	c.nop	6
      14:	0100                	addi	s0,sp,128
      16:	005a                	c.slli	zero,0x16
      18:	0019e407          	0x19e407
      1c:	fc00                	fsw	fs0,56(s0)
      1e:	0019                	c.nop	6
      20:	0100                	addi	s0,sp,128
      22:	005a                	c.slli	zero,0x16
      24:	0019e407          	0x19e407
      28:	1400                	addi	s0,sp,544
      2a:	001a                	c.slli	zero,0x6
      2c:	0500                	addi	s0,sp,640
      2e:	4b40                	lw	s0,20(a4)
      30:	1f24                	addi	s1,sp,952
      32:	009f e407 0019      	0x19e407009f
      38:	0000                	unimp
      3a:	001a                	c.slli	zero,0x6
      3c:	0200                	addi	s0,sp,256
      3e:	9f30                	0x9f30
      40:	0700                	addi	s0,sp,896
      42:	1a14                	addi	a3,sp,304
      44:	0000                	unimp
      46:	1a20                	addi	s0,sp,312
      48:	0000                	unimp
      4a:	3002                	fld	ft0,32(sp)
      4c:	009f 113b 0000      	0x113b009f
      52:	0005                	c.nop	1
      54:	0004                	0x4
      56:	0000                	unimp
      58:	0000                	unimp
      5a:	001f6007          	0x1f6007
      5e:	6400                	flw	fs0,8(s0)
      60:	001f 0200 9f35      	0x9f350200001f
      66:	0700                	addi	s0,sp,896
      68:	1f60                	addi	s0,sp,956
      6a:	0000                	unimp
      6c:	1f64                	addi	s1,sp,956
      6e:	0000                	unimp
      70:	3002                	fld	ft0,32(sp)
      72:	009f 6007 001f      	0x1f6007009f
      78:	6300                	flw	fs0,0(a4)
      7a:	001f 0100 075a      	0x75a0100001f
      80:	00001f63          	bnez	zero,9e <_start-0xf62>
      84:	1f64                	addi	s1,sp,956
      86:	0000                	unimp
      88:	9f589103          	lh	sp,-1547(a7)
      8c:	0700                	addi	s0,sp,896
      8e:	1a30                	addi	a2,sp,312
      90:	0000                	unimp
      92:	1b40                	addi	s0,sp,436
      94:	0000                	unimp
      96:	5a01                	li	s4,-32
      98:	001b4007          	flq	ft0,1(s6)
      9c:	6800                	flw	fs0,16(s0)
      9e:	0400001b          	0x400001b
      a2:	9f5a01a3          	sb	s5,-1565(s4) # fffea9e3 <stack_top+0x7ffca9e3>
      a6:	001b6807          	0x1b6807
      aa:	c800                	sw	s0,16(s0)
      ac:	0100001b          	0x100001b
      b0:	005a                	c.slli	zero,0x16
      b2:	001a3007          	fld	ft0,1(s4)
      b6:	e400                	fsw	fs0,8(s0)
      b8:	001a                	c.slli	zero,0x6
      ba:	0100                	addi	s0,sp,128
      bc:	1ae4075b          	0x1ae4075b
      c0:	0000                	unimp
      c2:	1bb0                	addi	a2,sp,504
      c4:	0000                	unimp
      c6:	a304                	fsd	fs1,0(a4)
      c8:	5b01                	li	s6,-32
      ca:	079f 1bb0 0000      	0x1bb0079f
      d0:	1bc8                	addi	a0,sp,500
      d2:	0000                	unimp
      d4:	5b01                	li	s6,-32
      d6:	0700                	addi	s0,sp,896
      d8:	1a30                	addi	a2,sp,312
      da:	0000                	unimp
      dc:	1ab8                	addi	a4,sp,376
      de:	0000                	unimp
      e0:	5c01                	li	s8,-32
      e2:	001ab807          	fld	fa6,1(s5)
      e6:	b000                	fsd	fs0,32(s0)
      e8:	0400001b          	0x400001b
      ec:	9f5c01a3          	sb	s5,-1565(s8) # 199e3 <__rodata_end+0x17a57>
      f0:	001bb007          	fld	ft0,1(s7)
      f4:	b400                	fsd	fs0,40(s0)
      f6:	0100001b          	0x100001b
      fa:	075c                	addi	a5,sp,900
      fc:	1bb4                	addi	a3,sp,504
      fe:	0000                	unimp
     100:	1bbc                	addi	a5,sp,504
     102:	0000                	unimp
     104:	a304                	fsd	fs1,0(a4)
     106:	5c01                	li	s8,-32
     108:	079f 1bbc 0000      	0x1bbc079f
     10e:	1bc0                	addi	s0,sp,500
     110:	0000                	unimp
     112:	5c01                	li	s8,-32
     114:	001bc007          	flq	ft0,1(s7)
     118:	c800                	sw	s0,16(s0)
     11a:	0400001b          	0x400001b
     11e:	9f5c01a3          	sb	s5,-1565(s8)
     122:	0700                	addi	s0,sp,896
     124:	1a30                	addi	a2,sp,312
     126:	0000                	unimp
     128:	1a3c                	addi	a5,sp,312
     12a:	0000                	unimp
     12c:	5d01                	li	s10,-32
     12e:	001a3c07          	fld	fs8,1(s4)
     132:	c800                	sw	s0,16(s0)
     134:	0400001b          	0x400001b
     138:	9f5d01a3          	sb	s5,-1565(s10) # a9e3 <__rodata_end+0x8a57>
     13c:	0700                	addi	s0,sp,896
     13e:	1a70                	addi	a2,sp,316
     140:	0000                	unimp
     142:	1a8c                	addi	a1,sp,368
     144:	0000                	unimp
     146:	3002                	fld	ft0,32(sp)
     148:	079f 1acc 0000      	0x1acc079f
     14e:	1ae4                	addi	s1,sp,380
     150:	0000                	unimp
     152:	3002                	fld	ft0,32(sp)
     154:	079f 1ae4 0000      	0x1ae4079f
     15a:	1b2c                	addi	a1,sp,440
     15c:	0000                	unimp
     15e:	6001                	0x6001
     160:	001b6807          	0x1b6807
     164:	7c00                	flw	fs0,56(s0)
     166:	0100001b          	0x100001b
     16a:	0760                	addi	s0,sp,908
     16c:	1b7c                	addi	a5,sp,444
     16e:	0000                	unimp
     170:	1bb0                	addi	a2,sp,504
     172:	0000                	unimp
     174:	5e01                	li	t3,-32
     176:	001bb007          	fld	ft0,1(s7)
     17a:	b800                	fsd	fs0,48(s0)
     17c:	0200001b          	0x200001b
     180:	9f30                	0x9f30
     182:	0700                	addi	s0,sp,896
     184:	1aa0                	addi	s0,sp,376
     186:	0000                	unimp
     188:	1ab8                	addi	a4,sp,376
     18a:	0000                	unimp
     18c:	3002                	fld	ft0,32(sp)
     18e:	079f 1acc 0000      	0x1acc079f
     194:	1ae4                	addi	s1,sp,380
     196:	0000                	unimp
     198:	3002                	fld	ft0,32(sp)
     19a:	079f 1ae4 0000      	0x1ae4079f
     1a0:	1b44                	addi	s1,sp,436
     1a2:	0000                	unimp
     1a4:	5c01                	li	s8,-32
     1a6:	001b6807          	0x1b6807
     1aa:	6c00                	flw	fs0,24(s0)
     1ac:	0100001b          	0x100001b
     1b0:	075c                	addi	a5,sp,900
     1b2:	1bb0                	addi	a2,sp,504
     1b4:	0000                	unimp
     1b6:	1bc8                	addi	a0,sp,500
     1b8:	0000                	unimp
     1ba:	3002                	fld	ft0,32(sp)
     1bc:	009f cc07 001a      	0x1acc07009f
     1c2:	3800                	fld	fs0,48(s0)
     1c4:	0100001b          	0x100001b
     1c8:	1b68075b          	0x1b68075b
     1cc:	0000                	unimp
     1ce:	1b7c                	addi	a5,sp,444
     1d0:	0000                	unimp
     1d2:	5b01                	li	s6,-32
     1d4:	001b7c07          	0x1b7c07
     1d8:	9c00                	0x9c00
     1da:	0900001b          	0x900001b
     1de:	0080007b          	0x80007b
     1e2:	7e1c                	flw	fa5,56(a2)
     1e4:	2200                	fld	fs0,0(a2)
     1e6:	079f 1b9c 0000      	0x1b9c079f
     1ec:	1bac                	addi	a1,sp,504
     1ee:	0000                	unimp
     1f0:	800a                	c.mv	zero,sp
     1f2:	2000                	fld	fs0,0(s0)
     1f4:	7e22007b          	0x7e22007b
     1f8:	2200                	fld	fs0,0(a2)
     1fa:	079f 1bb8 0000      	0x1bb8079f
     200:	1bbc                	addi	a5,sp,504
     202:	0000                	unimp
     204:	5b01                	li	s6,-32
     206:	0700                	addi	s0,sp,896
     208:	1a38                	addi	a4,sp,312
     20a:	0000                	unimp
     20c:	1b2c                	addi	a1,sp,440
     20e:	0000                	unimp
     210:	6e01                	0x6e01
     212:	001b2c07          	flw	fs8,1(s6)
     216:	6800                	flw	fs0,16(s0)
     218:	0300001b          	0x300001b
     21c:	018d                	addi	gp,gp,3
     21e:	079f 1b68 0000      	0x1b68079f
     224:	1b7c                	addi	a5,sp,444
     226:	0000                	unimp
     228:	6e01                	0x6e01
     22a:	001b7c07          	0x1b7c07
     22e:	b000                	fsd	fs0,32(s0)
     230:	0300001b          	0x300001b
     234:	018d                	addi	gp,gp,3
     236:	079f 1bb0 0000      	0x1bb0079f
     23c:	1bc8                	addi	a0,sp,500
     23e:	0000                	unimp
     240:	6e01                	0x6e01
     242:	0700                	addi	s0,sp,896
     244:	1a68                	addi	a0,sp,316
     246:	0000                	unimp
     248:	1a6c                	addi	a1,sp,316
     24a:	0000                	unimp
     24c:	7202                	flw	ft4,32(sp)
     24e:	0700                	addi	s0,sp,896
     250:	1a6c                	addi	a1,sp,316
     252:	0000                	unimp
     254:	1b2c                	addi	a1,sp,440
     256:	0000                	unimp
     258:	8f02                	jr	t5
     25a:	0700                	addi	s0,sp,896
     25c:	1b68                	addi	a0,sp,444
     25e:	0000                	unimp
     260:	1b7c                	addi	a5,sp,444
     262:	0000                	unimp
     264:	8f02                	jr	t5
     266:	0700                	addi	s0,sp,896
     268:	1bb0                	addi	a2,sp,504
     26a:	0000                	unimp
     26c:	1bc8                	addi	a0,sp,500
     26e:	0000                	unimp
     270:	8f02                	jr	t5
     272:	0000                	unimp
     274:	001a7007          	0x1a7007
     278:	5c00                	lw	s0,56(s0)
     27a:	0200001b          	0x200001b
     27e:	0072                	c.slli	zero,0x1c
     280:	001b6807          	0x1b6807
     284:	c800                	sw	s0,16(s0)
     286:	0200001b          	0x200001b
     28a:	0072                	c.slli	zero,0x1c
     28c:	0700                	addi	s0,sp,896
     28e:	1bc8                	addi	a0,sp,500
     290:	0000                	unimp
     292:	1c14                	addi	a3,sp,560
     294:	0000                	unimp
     296:	5a01                	li	s4,-32
     298:	001c1407          	0x1c1407
     29c:	4800                	lw	s0,16(s0)
     29e:	001c                	0x1c
     2a0:	0100                	addi	s0,sp,128
     2a2:	1c480763          	beq	a6,tp,470 <_start-0xb90>
     2a6:	0000                	unimp
     2a8:	00001c4f          	fnmadd.s	fs8,ft0,ft0,ft0,rtz
     2ac:	5a01                	li	s4,-32
     2ae:	001c4f07          	flq	ft10,1(s8)
     2b2:	5000                	lw	s0,32(s0)
     2b4:	001c                	0x1c
     2b6:	0400                	addi	s0,sp,512
     2b8:	9f5a01a3          	sb	s5,-1565(s4)
     2bc:	001c5007          	0x1c5007
     2c0:	6400                	flw	fs0,8(s0)
     2c2:	001c                	0x1c
     2c4:	0100                	addi	s0,sp,128
     2c6:	075a                	slli	a4,a4,0x16
     2c8:	1c64                	addi	s1,sp,572
     2ca:	0000                	unimp
     2cc:	1cb0                	addi	a2,sp,632
     2ce:	0000                	unimp
     2d0:	6301                	0x6301
     2d2:	001cb007          	fld	ft0,1(s9)
     2d6:	bc00                	fsd	fs0,56(s0)
     2d8:	001c                	0x1c
     2da:	0100                	addi	s0,sp,128
     2dc:	075a                	slli	a4,a4,0x16
     2de:	1cbc                	addi	a5,sp,632
     2e0:	0000                	unimp
     2e2:	1d6c                	addi	a1,sp,700
     2e4:	0000                	unimp
     2e6:	6301                	0x6301
     2e8:	001d6c07          	0x1d6c07
     2ec:	7300                	flw	fs0,32(a4)
     2ee:	001d                	c.nop	7
     2f0:	0100                	addi	s0,sp,128
     2f2:	075a                	slli	a4,a4,0x16
     2f4:	00001d73          	csrrw	s10,ustatus,zero
     2f8:	1df4                	addi	a3,sp,764
     2fa:	0000                	unimp
     2fc:	6301                	0x6301
     2fe:	0700                	addi	s0,sp,896
     300:	1bc8                	addi	a0,sp,500
     302:	0000                	unimp
     304:	1c14                	addi	a3,sp,560
     306:	0000                	unimp
     308:	5b01                	li	s6,-32
     30a:	001c1407          	0x1c1407
     30e:	1c00                	addi	s0,sp,560
     310:	001c                	0x1c
     312:	0100                	addi	s0,sp,128
     314:	0758                	addi	a4,sp,900
     316:	1c1c                	addi	a5,sp,560
     318:	0000                	unimp
     31a:	00001c4f          	fnmadd.s	fs8,ft0,ft0,ft0,rtz
     31e:	5b01                	li	s6,-32
     320:	001c4f07          	flq	ft10,1(s8)
     324:	5000                	lw	s0,32(s0)
     326:	001c                	0x1c
     328:	0400                	addi	s0,sp,512
     32a:	9f5b01a3          	sb	s5,-1565(s6)
     32e:	001c5007          	0x1c5007
     332:	f400                	fsw	fs0,40(s0)
     334:	001d                	c.nop	7
     336:	0100                	addi	s0,sp,128
     338:	0058                	addi	a4,sp,4
     33a:	001bc807          	flq	fa6,1(s7)
     33e:	1400                	addi	s0,sp,544
     340:	001c                	0x1c
     342:	0100                	addi	s0,sp,128
     344:	075c                	addi	a5,sp,900
     346:	1c14                	addi	a3,sp,560
     348:	0000                	unimp
     34a:	1c3c                	addi	a5,sp,568
     34c:	0000                	unimp
     34e:	5901                	li	s2,-32
     350:	001c3c07          	fld	fs8,1(s8)
     354:	4f00                	lw	s0,24(a4)
     356:	001c                	0x1c
     358:	0100                	addi	s0,sp,128
     35a:	075d                	addi	a4,a4,23
     35c:	00001c4f          	fnmadd.s	fs8,ft0,ft0,ft0,rtz
     360:	1c50                	addi	a2,sp,564
     362:	0000                	unimp
     364:	a304                	fsd	fs1,0(a4)
     366:	5c01                	li	s8,-32
     368:	079f 1c50 0000      	0x1c50079f
     36e:	1df4                	addi	a3,sp,764
     370:	0000                	unimp
     372:	5901                	li	s2,-32
     374:	0700                	addi	s0,sp,896
     376:	1bfc                	addi	a5,sp,508
     378:	0000                	unimp
     37a:	1c40                	addi	s0,sp,564
     37c:	0000                	unimp
     37e:	6201                	0x6201
     380:	001c4007          	flq	ft0,1(s8)
     384:	4f00                	lw	s0,24(a4)
     386:	001c                	0x1c
     388:	0100                	addi	s0,sp,128
     38a:	075c                	addi	a5,sp,900
     38c:	00001c4f          	fnmadd.s	fs8,ft0,ft0,ft0,rtz
     390:	1c50                	addi	a2,sp,564
     392:	0000                	unimp
     394:	a30e                	fsd	ft3,384(sp)
     396:	5c01                	li	s8,-32
     398:	1c5b01a3          	sb	t0,451(s6)
     39c:	2631                	jal	6a8 <_start-0x958>
     39e:	225b01a3          	sb	t0,547(s6)
     3a2:	079f 1c50 0000      	0x1c50079f
     3a8:	1df4                	addi	a3,sp,764
     3aa:	0000                	unimp
     3ac:	6201                	0x6201
     3ae:	0700                	addi	s0,sp,896
     3b0:	1c08                	addi	a0,sp,560
     3b2:	0000                	unimp
     3b4:	1c0c                	addi	a1,sp,560
     3b6:	0000                	unimp
     3b8:	6201                	0x6201
     3ba:	001c5007          	0x1c5007
     3be:	7c00                	flw	fs0,56(s0)
     3c0:	001c                	0x1c
     3c2:	0100                	addi	s0,sp,128
     3c4:	0762                	slli	a4,a4,0x18
     3c6:	1cb0                	addi	a2,sp,632
     3c8:	0000                	unimp
     3ca:	1d10                	addi	a2,sp,688
     3cc:	0000                	unimp
     3ce:	6201                	0x6201
     3d0:	001d6c07          	0x1d6c07
     3d4:	9c00                	0x9c00
     3d6:	001d                	c.nop	7
     3d8:	0100                	addi	s0,sp,128
     3da:	0762                	slli	a4,a4,0x18
     3dc:	1de4                	addi	s1,sp,764
     3de:	0000                	unimp
     3e0:	1df4                	addi	a3,sp,764
     3e2:	0000                	unimp
     3e4:	6201                	0x6201
     3e6:	0700                	addi	s0,sp,896
     3e8:	1c08                	addi	a0,sp,560
     3ea:	0000                	unimp
     3ec:	1c0c                	addi	a1,sp,560
     3ee:	0000                	unimp
     3f0:	5b01                	li	s6,-32
     3f2:	001c5007          	0x1c5007
     3f6:	7c00                	flw	fs0,56(s0)
     3f8:	001c                	0x1c
     3fa:	0100                	addi	s0,sp,128
     3fc:	0758                	addi	a4,sp,900
     3fe:	1cb0                	addi	a2,sp,632
     400:	0000                	unimp
     402:	1d10                	addi	a2,sp,688
     404:	0000                	unimp
     406:	5801                	li	a6,-32
     408:	001d6c07          	0x1d6c07
     40c:	9c00                	0x9c00
     40e:	001d                	c.nop	7
     410:	0100                	addi	s0,sp,128
     412:	0758                	addi	a4,sp,900
     414:	1de4                	addi	s1,sp,764
     416:	0000                	unimp
     418:	1df4                	addi	a3,sp,764
     41a:	0000                	unimp
     41c:	5801                	li	a6,-32
     41e:	0700                	addi	s0,sp,896
     420:	1c08                	addi	a0,sp,560
     422:	0000                	unimp
     424:	1c0c                	addi	a1,sp,560
     426:	0000                	unimp
     428:	5a01                	li	s4,-32
     42a:	001c5007          	0x1c5007
     42e:	6400                	flw	fs0,8(s0)
     430:	001c                	0x1c
     432:	0100                	addi	s0,sp,128
     434:	075a                	slli	a4,a4,0x16
     436:	1c64                	addi	s1,sp,572
     438:	0000                	unimp
     43a:	1c7c                	addi	a5,sp,572
     43c:	0000                	unimp
     43e:	6301                	0x6301
     440:	001cb007          	fld	ft0,1(s9)
     444:	bc00                	fsd	fs0,56(s0)
     446:	001c                	0x1c
     448:	0100                	addi	s0,sp,128
     44a:	075a                	slli	a4,a4,0x16
     44c:	1cbc                	addi	a5,sp,632
     44e:	0000                	unimp
     450:	1d10                	addi	a2,sp,688
     452:	0000                	unimp
     454:	6301                	0x6301
     456:	001d6c07          	0x1d6c07
     45a:	7300                	flw	fs0,32(a4)
     45c:	001d                	c.nop	7
     45e:	0100                	addi	s0,sp,128
     460:	075a                	slli	a4,a4,0x16
     462:	00001d73          	csrrw	s10,ustatus,zero
     466:	1d9c                	addi	a5,sp,752
     468:	0000                	unimp
     46a:	6301                	0x6301
     46c:	001de407          	0x1de407
     470:	f400                	fsw	fs0,40(s0)
     472:	001d                	c.nop	7
     474:	0100                	addi	s0,sp,128
     476:	50070063          	beqz	a4,976 <_start-0x68a>
     47a:	001c                	0x1c
     47c:	7c00                	flw	fs0,56(s0)
     47e:	001c                	0x1c
     480:	0100                	addi	s0,sp,128
     482:	0762                	slli	a4,a4,0x18
     484:	1cb0                	addi	a2,sp,632
     486:	0000                	unimp
     488:	1d10                	addi	a2,sp,688
     48a:	0000                	unimp
     48c:	6201                	0x6201
     48e:	001d6c07          	0x1d6c07
     492:	9c00                	0x9c00
     494:	001d                	c.nop	7
     496:	0100                	addi	s0,sp,128
     498:	0762                	slli	a4,a4,0x18
     49a:	1de4                	addi	s1,sp,764
     49c:	0000                	unimp
     49e:	1df4                	addi	a3,sp,764
     4a0:	0000                	unimp
     4a2:	6201                	0x6201
     4a4:	0700                	addi	s0,sp,896
     4a6:	1c50                	addi	a2,sp,564
     4a8:	0000                	unimp
     4aa:	1c7c                	addi	a5,sp,572
     4ac:	0000                	unimp
     4ae:	5801                	li	a6,-32
     4b0:	001cb007          	fld	ft0,1(s9)
     4b4:	1000                	addi	s0,sp,32
     4b6:	001d                	c.nop	7
     4b8:	0100                	addi	s0,sp,128
     4ba:	0758                	addi	a4,sp,900
     4bc:	1d6c                	addi	a1,sp,700
     4be:	0000                	unimp
     4c0:	1d9c                	addi	a5,sp,752
     4c2:	0000                	unimp
     4c4:	5801                	li	a6,-32
     4c6:	001de407          	0x1de407
     4ca:	f400                	fsw	fs0,40(s0)
     4cc:	001d                	c.nop	7
     4ce:	0100                	addi	s0,sp,128
     4d0:	0058                	addi	a4,sp,4
     4d2:	001c5007          	0x1c5007
     4d6:	6400                	flw	fs0,8(s0)
     4d8:	001c                	0x1c
     4da:	0100                	addi	s0,sp,128
     4dc:	075a                	slli	a4,a4,0x16
     4de:	1c64                	addi	s1,sp,572
     4e0:	0000                	unimp
     4e2:	1c7c                	addi	a5,sp,572
     4e4:	0000                	unimp
     4e6:	6301                	0x6301
     4e8:	001cb007          	fld	ft0,1(s9)
     4ec:	bc00                	fsd	fs0,56(s0)
     4ee:	001c                	0x1c
     4f0:	0100                	addi	s0,sp,128
     4f2:	075a                	slli	a4,a4,0x16
     4f4:	1cbc                	addi	a5,sp,632
     4f6:	0000                	unimp
     4f8:	1d10                	addi	a2,sp,688
     4fa:	0000                	unimp
     4fc:	6301                	0x6301
     4fe:	001d6c07          	0x1d6c07
     502:	7300                	flw	fs0,32(a4)
     504:	001d                	c.nop	7
     506:	0100                	addi	s0,sp,128
     508:	075a                	slli	a4,a4,0x16
     50a:	00001d73          	csrrw	s10,ustatus,zero
     50e:	1d9c                	addi	a5,sp,752
     510:	0000                	unimp
     512:	6301                	0x6301
     514:	001de407          	0x1de407
     518:	f400                	fsw	fs0,40(s0)
     51a:	001d                	c.nop	7
     51c:	0100                	addi	s0,sp,128
     51e:	58070063          	beqz	a4,a9e <_start-0x562>
     522:	001c                	0x1c
     524:	7c00                	flw	fs0,56(s0)
     526:	001c                	0x1c
     528:	0100                	addi	s0,sp,128
     52a:	0765                	addi	a4,a4,25
     52c:	1cb0                	addi	a2,sp,632
     52e:	0000                	unimp
     530:	1d10                	addi	a2,sp,688
     532:	0000                	unimp
     534:	6501                	0x6501
     536:	001d6c07          	0x1d6c07
     53a:	9c00                	0x9c00
     53c:	001d                	c.nop	7
     53e:	0100                	addi	s0,sp,128
     540:	0765                	addi	a4,a4,25
     542:	1de4                	addi	s1,sp,764
     544:	0000                	unimp
     546:	1df4                	addi	a3,sp,764
     548:	0000                	unimp
     54a:	6501                	0x6501
     54c:	0700                	addi	s0,sp,896
     54e:	1c58                	addi	a4,sp,564
     550:	0000                	unimp
     552:	1c5c                	addi	a5,sp,564
     554:	0000                	unimp
     556:	6501                	0x6501
     558:	001cb007          	fld	ft0,1(s9)
     55c:	dc00                	sw	s0,56(s0)
     55e:	001c                	0x1c
     560:	0100                	addi	s0,sp,128
     562:	0765                	addi	a4,a4,25
     564:	1d6c                	addi	a1,sp,700
     566:	0000                	unimp
     568:	1d78                	addi	a4,sp,700
     56a:	0000                	unimp
     56c:	6501                	0x6501
     56e:	001de407          	0x1de407
     572:	f400                	fsw	fs0,40(s0)
     574:	001d                	c.nop	7
     576:	0100                	addi	s0,sp,128
     578:	0065                	c.nop	25
     57a:	001c5807          	0x1c5807
     57e:	5c00                	lw	s0,56(s0)
     580:	001c                	0x1c
     582:	0100                	addi	s0,sp,128
     584:	0758                	addi	a4,sp,900
     586:	1cb0                	addi	a2,sp,632
     588:	0000                	unimp
     58a:	1cdc                	addi	a5,sp,628
     58c:	0000                	unimp
     58e:	5801                	li	a6,-32
     590:	001d6c07          	0x1d6c07
     594:	7800                	flw	fs0,48(s0)
     596:	001d                	c.nop	7
     598:	0100                	addi	s0,sp,128
     59a:	0758                	addi	a4,sp,900
     59c:	1de4                	addi	s1,sp,764
     59e:	0000                	unimp
     5a0:	1df4                	addi	a3,sp,764
     5a2:	0000                	unimp
     5a4:	5801                	li	a6,-32
     5a6:	0700                	addi	s0,sp,896
     5a8:	1c58                	addi	a4,sp,564
     5aa:	0000                	unimp
     5ac:	1c5c                	addi	a5,sp,564
     5ae:	0000                	unimp
     5b0:	5a01                	li	s4,-32
     5b2:	001cb007          	fld	ft0,1(s9)
     5b6:	bc00                	fsd	fs0,56(s0)
     5b8:	001c                	0x1c
     5ba:	0100                	addi	s0,sp,128
     5bc:	075a                	slli	a4,a4,0x16
     5be:	1cbc                	addi	a5,sp,632
     5c0:	0000                	unimp
     5c2:	1cdc                	addi	a5,sp,628
     5c4:	0000                	unimp
     5c6:	6301                	0x6301
     5c8:	001d6c07          	0x1d6c07
     5cc:	7300                	flw	fs0,32(a4)
     5ce:	001d                	c.nop	7
     5d0:	0100                	addi	s0,sp,128
     5d2:	075a                	slli	a4,a4,0x16
     5d4:	00001d73          	csrrw	s10,ustatus,zero
     5d8:	1d78                	addi	a4,sp,700
     5da:	0000                	unimp
     5dc:	6301                	0x6301
     5de:	001de407          	0x1de407
     5e2:	f400                	fsw	fs0,40(s0)
     5e4:	001d                	c.nop	7
     5e6:	0100                	addi	s0,sp,128
     5e8:	b0070063          	beqz	a4,fffff8e8 <stack_top+0x7ffdf8e8>
     5ec:	001c                	0x1c
     5ee:	dc00                	sw	s0,56(s0)
     5f0:	001c                	0x1c
     5f2:	0100                	addi	s0,sp,128
     5f4:	0765                	addi	a4,a4,25
     5f6:	1d6c                	addi	a1,sp,700
     5f8:	0000                	unimp
     5fa:	1d78                	addi	a4,sp,700
     5fc:	0000                	unimp
     5fe:	6501                	0x6501
     600:	001de407          	0x1de407
     604:	f400                	fsw	fs0,40(s0)
     606:	001d                	c.nop	7
     608:	0100                	addi	s0,sp,128
     60a:	0065                	c.nop	25
     60c:	001cb007          	fld	ft0,1(s9)
     610:	dc00                	sw	s0,56(s0)
     612:	001c                	0x1c
     614:	0100                	addi	s0,sp,128
     616:	0758                	addi	a4,sp,900
     618:	1d6c                	addi	a1,sp,700
     61a:	0000                	unimp
     61c:	1d78                	addi	a4,sp,700
     61e:	0000                	unimp
     620:	5801                	li	a6,-32
     622:	001de407          	0x1de407
     626:	f400                	fsw	fs0,40(s0)
     628:	001d                	c.nop	7
     62a:	0100                	addi	s0,sp,128
     62c:	0058                	addi	a4,sp,4
     62e:	001cb007          	fld	ft0,1(s9)
     632:	bc00                	fsd	fs0,56(s0)
     634:	001c                	0x1c
     636:	0100                	addi	s0,sp,128
     638:	075a                	slli	a4,a4,0x16
     63a:	1cbc                	addi	a5,sp,632
     63c:	0000                	unimp
     63e:	1cdc                	addi	a5,sp,628
     640:	0000                	unimp
     642:	6301                	0x6301
     644:	001d6c07          	0x1d6c07
     648:	7300                	flw	fs0,32(a4)
     64a:	001d                	c.nop	7
     64c:	0100                	addi	s0,sp,128
     64e:	075a                	slli	a4,a4,0x16
     650:	00001d73          	csrrw	s10,ustatus,zero
     654:	1d78                	addi	a4,sp,700
     656:	0000                	unimp
     658:	6301                	0x6301
     65a:	001de407          	0x1de407
     65e:	f400                	fsw	fs0,40(s0)
     660:	001d                	c.nop	7
     662:	0100                	addi	s0,sp,128
     664:	b8070063          	beqz	a4,fffff9e4 <stack_top+0x7ffdf9e4>
     668:	001c                	0x1c
     66a:	d800                	sw	s0,48(s0)
     66c:	001c                	0x1c
     66e:	0100                	addi	s0,sp,128
     670:	0764                	addi	s1,sp,908
     672:	1cd8                	addi	a4,sp,628
     674:	0000                	unimp
     676:	00001cdb          	0x1cdb
     67a:	5c01                	li	s8,-32
     67c:	001cdb07          	0x1cdb07
     680:	dc00                	sw	s0,56(s0)
     682:	001c                	0x1c
     684:	0b00                	addi	s0,sp,400
     686:	0079                	c.nop	30
     688:	0078                	addi	a4,sp,12
     68a:	331c                	fld	fa5,32(a4)
     68c:	7826                	flw	fa6,104(sp)
     68e:	2200                	fld	fs0,0(a2)
     690:	079f 1d6c 0000      	0x1d6c079f
     696:	1d78                	addi	a4,sp,700
     698:	0000                	unimp
     69a:	6401                	0x6401
     69c:	001de407          	0x1de407
     6a0:	f400                	fsw	fs0,40(s0)
     6a2:	001d                	c.nop	7
     6a4:	0100                	addi	s0,sp,128
     6a6:	0064                	addi	s1,sp,12
     6a8:	001cb807          	fld	fa6,1(s9)
     6ac:	bc00                	fsd	fs0,56(s0)
     6ae:	001c                	0x1c
     6b0:	0100                	addi	s0,sp,128
     6b2:	0764                	addi	s1,sp,908
     6b4:	1d6c                	addi	a1,sp,700
     6b6:	0000                	unimp
     6b8:	1d78                	addi	a4,sp,700
     6ba:	0000                	unimp
     6bc:	6401                	0x6401
     6be:	0700                	addi	s0,sp,896
     6c0:	1cb8                	addi	a4,sp,632
     6c2:	0000                	unimp
     6c4:	1cbc                	addi	a5,sp,632
     6c6:	0000                	unimp
     6c8:	5801                	li	a6,-32
     6ca:	001d6c07          	0x1d6c07
     6ce:	7800                	flw	fs0,48(s0)
     6d0:	001d                	c.nop	7
     6d2:	0100                	addi	s0,sp,128
     6d4:	0058                	addi	a4,sp,4
     6d6:	001cb807          	fld	fa6,1(s9)
     6da:	bc00                	fsd	fs0,56(s0)
     6dc:	001c                	0x1c
     6de:	0100                	addi	s0,sp,128
     6e0:	075a                	slli	a4,a4,0x16
     6e2:	1d6c                	addi	a1,sp,700
     6e4:	0000                	unimp
     6e6:	00001d73          	csrrw	s10,ustatus,zero
     6ea:	5a01                	li	s4,-32
     6ec:	001d7307          	0x1d7307
     6f0:	7800                	flw	fs0,48(s0)
     6f2:	001d                	c.nop	7
     6f4:	0100                	addi	s0,sp,128
     6f6:	c0070063          	beqz	a4,fffffaf6 <stack_top+0x7ffdfaf6>
     6fa:	001c                	0x1c
     6fc:	c400                	sw	s0,8(s0)
     6fe:	001c                	0x1c
     700:	0100                	addi	s0,sp,128
     702:	0765                	addi	a4,a4,25
     704:	1de4                	addi	s1,sp,764
     706:	0000                	unimp
     708:	1df4                	addi	a3,sp,764
     70a:	0000                	unimp
     70c:	6501                	0x6501
     70e:	0700                	addi	s0,sp,896
     710:	1cc0                	addi	s0,sp,628
     712:	0000                	unimp
     714:	1cc4                	addi	s1,sp,628
     716:	0000                	unimp
     718:	5b01                	li	s6,-32
     71a:	001de407          	0x1de407
     71e:	ef00                	fsw	fs0,24(a4)
     720:	001d                	c.nop	7
     722:	0100                	addi	s0,sp,128
     724:	1def075b          	0x1def075b
     728:	0000                	unimp
     72a:	1df4                	addi	a3,sp,764
     72c:	0000                	unimp
     72e:	9f018403          	lb	s0,-1552(gp)
     732:	0700                	addi	s0,sp,896
     734:	1cc0                	addi	s0,sp,628
     736:	0000                	unimp
     738:	1cc4                	addi	s1,sp,628
     73a:	0000                	unimp
     73c:	6301                	0x6301
     73e:	001de407          	0x1de407
     742:	f400                	fsw	fs0,40(s0)
     744:	001d                	c.nop	7
     746:	0100                	addi	s0,sp,128
     748:	60070063          	beqz	a4,d48 <_start-0x2b8>
     74c:	001c                	0x1c
     74e:	6400                	flw	fs0,8(s0)
     750:	001c                	0x1c
     752:	0100                	addi	s0,sp,128
     754:	0762                	slli	a4,a4,0x18
     756:	1cdc                	addi	a5,sp,628
     758:	0000                	unimp
     75a:	1d10                	addi	a2,sp,688
     75c:	0000                	unimp
     75e:	6201                	0x6201
     760:	001d7807          	0x1d7807
     764:	9c00                	0x9c00
     766:	001d                	c.nop	7
     768:	0100                	addi	s0,sp,128
     76a:	0062                	c.slli	zero,0x18
     76c:	001c6007          	0x1c6007
     770:	6400                	flw	fs0,8(s0)
     772:	001c                	0x1c
     774:	0100                	addi	s0,sp,128
     776:	0764                	addi	s1,sp,908
     778:	1cdc                	addi	a5,sp,628
     77a:	0000                	unimp
     77c:	1d10                	addi	a2,sp,688
     77e:	0000                	unimp
     780:	6401                	0x6401
     782:	001d7807          	0x1d7807
     786:	9c00                	0x9c00
     788:	001d                	c.nop	7
     78a:	0100                	addi	s0,sp,128
     78c:	0064                	addi	s1,sp,12
     78e:	001c6007          	0x1c6007
     792:	6400                	flw	fs0,8(s0)
     794:	001c                	0x1c
     796:	0100                	addi	s0,sp,128
     798:	075a                	slli	a4,a4,0x16
     79a:	1cdc                	addi	a5,sp,628
     79c:	0000                	unimp
     79e:	1d10                	addi	a2,sp,688
     7a0:	0000                	unimp
     7a2:	6301                	0x6301
     7a4:	001d7807          	0x1d7807
     7a8:	9c00                	0x9c00
     7aa:	001d                	c.nop	7
     7ac:	0100                	addi	s0,sp,128
     7ae:	e0070063          	beqz	a4,fffffdae <stack_top+0x7ffdfdae>
     7b2:	001c                	0x1c
     7b4:	1000                	addi	s0,sp,32
     7b6:	001d                	c.nop	7
     7b8:	0100                	addi	s0,sp,128
     7ba:	0762                	slli	a4,a4,0x18
     7bc:	1d78                	addi	a4,sp,700
     7be:	0000                	unimp
     7c0:	1d9c                	addi	a5,sp,752
     7c2:	0000                	unimp
     7c4:	6201                	0x6201
     7c6:	0700                	addi	s0,sp,896
     7c8:	1ce0                	addi	s0,sp,636
     7ca:	0000                	unimp
     7cc:	1d10                	addi	a2,sp,688
     7ce:	0000                	unimp
     7d0:	6401                	0x6401
     7d2:	001d7807          	0x1d7807
     7d6:	9c00                	0x9c00
     7d8:	001d                	c.nop	7
     7da:	0100                	addi	s0,sp,128
     7dc:	0064                	addi	s1,sp,12
     7de:	001ce007          	0x1ce007
     7e2:	1000                	addi	s0,sp,32
     7e4:	001d                	c.nop	7
     7e6:	0100                	addi	s0,sp,128
     7e8:	1d780763          	beq	a6,s7,9b6 <_start-0x64a>
     7ec:	0000                	unimp
     7ee:	1d9c                	addi	a5,sp,752
     7f0:	0000                	unimp
     7f2:	6301                	0x6301
     7f4:	0700                	addi	s0,sp,896
     7f6:	1cec                	addi	a1,sp,636
     7f8:	0000                	unimp
     7fa:	1d10                	addi	a2,sp,688
     7fc:	0000                	unimp
     7fe:	6601                	0x6601
     800:	001d7807          	0x1d7807
     804:	9c00                	0x9c00
     806:	001d                	c.nop	7
     808:	0100                	addi	s0,sp,128
     80a:	0066                	c.slli	zero,0x19
     80c:	001cec07          	0x1cec07
     810:	f000                	fsw	fs0,32(s0)
     812:	001c                	0x1c
     814:	0100                	addi	s0,sp,128
     816:	0766                	slli	a4,a4,0x19
     818:	1d88                	addi	a0,sp,752
     81a:	0000                	unimp
     81c:	1d9c                	addi	a5,sp,752
     81e:	0000                	unimp
     820:	6601                	0x6601
     822:	0700                	addi	s0,sp,896
     824:	1cec                	addi	a1,sp,636
     826:	0000                	unimp
     828:	1cf0                	addi	a2,sp,636
     82a:	0000                	unimp
     82c:	6401                	0x6401
     82e:	001d8807          	0x1d8807
     832:	9c00                	0x9c00
     834:	001d                	c.nop	7
     836:	0100                	addi	s0,sp,128
     838:	0064                	addi	s1,sp,12
     83a:	001cec07          	0x1cec07
     83e:	f000                	fsw	fs0,32(s0)
     840:	001c                	0x1c
     842:	0100                	addi	s0,sp,128
     844:	1d880763          	beq	a6,s8,a12 <_start-0x5ee>
     848:	0000                	unimp
     84a:	1d9c                	addi	a5,sp,752
     84c:	0000                	unimp
     84e:	6301                	0x6301
     850:	0700                	addi	s0,sp,896
     852:	1cf4                	addi	a3,sp,636
     854:	0000                	unimp
     856:	1cf8                	addi	a4,sp,636
     858:	0000                	unimp
     85a:	6201                	0x6201
     85c:	001d7807          	0x1d7807
     860:	8800                	0x8800
     862:	001d                	c.nop	7
     864:	0100                	addi	s0,sp,128
     866:	0062                	c.slli	zero,0x18
     868:	001cf407          	0x1cf407
     86c:	f800                	fsw	fs0,48(s0)
     86e:	001c                	0x1c
     870:	0100                	addi	s0,sp,128
     872:	1d78075b          	0x1d78075b
     876:	0000                	unimp
     878:	00001d83          	lh	s11,0(zero) # 0 <_start-0x1000>
     87c:	5b01                	li	s6,-32
     87e:	001d8307          	0x1d8307
     882:	8800                	0x8800
     884:	001d                	c.nop	7
     886:	0300                	addi	s0,sp,384
     888:	0186                	slli	gp,gp,0x1
     88a:	009f f407 001c      	0x1cf407009f
     890:	f800                	fsw	fs0,48(s0)
     892:	001c                	0x1c
     894:	0100                	addi	s0,sp,128
     896:	1d780763          	beq	a6,s7,a64 <_start-0x59c>
     89a:	0000                	unimp
     89c:	1d88                	addi	a0,sp,752
     89e:	0000                	unimp
     8a0:	6301                	0x6301
     8a2:	0700                	addi	s0,sp,896
     8a4:	1c10                	addi	a2,sp,560
     8a6:	0000                	unimp
     8a8:	1c14                	addi	a3,sp,560
     8aa:	0000                	unimp
     8ac:	5c01                	li	s8,-32
     8ae:	001c7c07          	0x1c7c07
     8b2:	b000                	fsd	fs0,32(s0)
     8b4:	001c                	0x1c
     8b6:	0100                	addi	s0,sp,128
     8b8:	0759                	addi	a4,a4,22
     8ba:	1d10                	addi	a2,sp,688
     8bc:	0000                	unimp
     8be:	1d6c                	addi	a1,sp,700
     8c0:	0000                	unimp
     8c2:	5901                	li	s2,-32
     8c4:	001d9c07          	0x1d9c07
     8c8:	e400                	fsw	fs0,8(s0)
     8ca:	001d                	c.nop	7
     8cc:	0100                	addi	s0,sp,128
     8ce:	0059                	c.nop	22
     8d0:	001c1007          	0x1c1007
     8d4:	1400                	addi	s0,sp,544
     8d6:	001c                	0x1c
     8d8:	0100                	addi	s0,sp,128
     8da:	0764                	addi	s1,sp,908
     8dc:	1c7c                	addi	a5,sp,572
     8de:	0000                	unimp
     8e0:	1cb0                	addi	a2,sp,632
     8e2:	0000                	unimp
     8e4:	6401                	0x6401
     8e6:	001d1007          	0x1d1007
     8ea:	6c00                	flw	fs0,24(s0)
     8ec:	001d                	c.nop	7
     8ee:	0100                	addi	s0,sp,128
     8f0:	0764                	addi	s1,sp,908
     8f2:	1d9c                	addi	a5,sp,752
     8f4:	0000                	unimp
     8f6:	1de4                	addi	s1,sp,764
     8f8:	0000                	unimp
     8fa:	6401                	0x6401
     8fc:	0700                	addi	s0,sp,896
     8fe:	1c10                	addi	a2,sp,560
     900:	0000                	unimp
     902:	1c14                	addi	a3,sp,560
     904:	0000                	unimp
     906:	5a01                	li	s4,-32
     908:	001c7c07          	0x1c7c07
     90c:	b000                	fsd	fs0,32(s0)
     90e:	001c                	0x1c
     910:	0100                	addi	s0,sp,128
     912:	1d100763          	beq	zero,a7,ae0 <_start-0x520>
     916:	0000                	unimp
     918:	1d6c                	addi	a1,sp,700
     91a:	0000                	unimp
     91c:	6301                	0x6301
     91e:	001d9c07          	0x1d9c07
     922:	e400                	fsw	fs0,8(s0)
     924:	001d                	c.nop	7
     926:	0100                	addi	s0,sp,128
     928:	80070063          	beqz	a4,fffff928 <stack_top+0x7ffdf928>
     92c:	001c                	0x1c
     92e:	b000                	fsd	fs0,32(s0)
     930:	001c                	0x1c
     932:	0100                	addi	s0,sp,128
     934:	0759                	addi	a4,a4,22
     936:	1d10                	addi	a2,sp,688
     938:	0000                	unimp
     93a:	1d6c                	addi	a1,sp,700
     93c:	0000                	unimp
     93e:	5901                	li	s2,-32
     940:	001d9c07          	0x1d9c07
     944:	e400                	fsw	fs0,8(s0)
     946:	001d                	c.nop	7
     948:	0100                	addi	s0,sp,128
     94a:	0059                	c.nop	22
     94c:	001c8007          	0x1c8007
     950:	b000                	fsd	fs0,32(s0)
     952:	001c                	0x1c
     954:	0100                	addi	s0,sp,128
     956:	0764                	addi	s1,sp,908
     958:	1d10                	addi	a2,sp,688
     95a:	0000                	unimp
     95c:	1d6c                	addi	a1,sp,700
     95e:	0000                	unimp
     960:	6401                	0x6401
     962:	001d9c07          	0x1d9c07
     966:	e400                	fsw	fs0,8(s0)
     968:	001d                	c.nop	7
     96a:	0100                	addi	s0,sp,128
     96c:	0064                	addi	s1,sp,12
     96e:	001c8007          	0x1c8007
     972:	b000                	fsd	fs0,32(s0)
     974:	001c                	0x1c
     976:	0100                	addi	s0,sp,128
     978:	1d100763          	beq	zero,a7,b46 <_start-0x4ba>
     97c:	0000                	unimp
     97e:	1d6c                	addi	a1,sp,700
     980:	0000                	unimp
     982:	6301                	0x6301
     984:	001d9c07          	0x1d9c07
     988:	e400                	fsw	fs0,8(s0)
     98a:	001d                	c.nop	7
     98c:	0100                	addi	s0,sp,128
     98e:	8c070063          	beqz	a4,fffffa4e <stack_top+0x7ffdfa4e>
     992:	001c                	0x1c
     994:	b000                	fsd	fs0,32(s0)
     996:	001c                	0x1c
     998:	0100                	addi	s0,sp,128
     99a:	0765                	addi	a4,a4,25
     99c:	1d10                	addi	a2,sp,688
     99e:	0000                	unimp
     9a0:	1d6c                	addi	a1,sp,700
     9a2:	0000                	unimp
     9a4:	6501                	0x6501
     9a6:	001d9c07          	0x1d9c07
     9aa:	e400                	fsw	fs0,8(s0)
     9ac:	001d                	c.nop	7
     9ae:	0100                	addi	s0,sp,128
     9b0:	0065                	c.nop	25
     9b2:	001c8c07          	0x1c8c07
     9b6:	9000                	0x9000
     9b8:	001c                	0x1c
     9ba:	0100                	addi	s0,sp,128
     9bc:	0765                	addi	a4,a4,25
     9be:	1d40                	addi	s0,sp,692
     9c0:	0000                	unimp
     9c2:	1d6c                	addi	a1,sp,700
     9c4:	0000                	unimp
     9c6:	6501                	0x6501
     9c8:	001d9c07          	0x1d9c07
     9cc:	c000                	sw	s0,0(s0)
     9ce:	001d                	c.nop	7
     9d0:	0100                	addi	s0,sp,128
     9d2:	0065                	c.nop	25
     9d4:	001c8c07          	0x1c8c07
     9d8:	9000                	0x9000
     9da:	001c                	0x1c
     9dc:	0100                	addi	s0,sp,128
     9de:	0764                	addi	s1,sp,908
     9e0:	1d40                	addi	s0,sp,692
     9e2:	0000                	unimp
     9e4:	1d6c                	addi	a1,sp,700
     9e6:	0000                	unimp
     9e8:	6401                	0x6401
     9ea:	001d9c07          	0x1d9c07
     9ee:	c000                	sw	s0,0(s0)
     9f0:	001d                	c.nop	7
     9f2:	0100                	addi	s0,sp,128
     9f4:	0064                	addi	s1,sp,12
     9f6:	001c8c07          	0x1c8c07
     9fa:	9000                	0x9000
     9fc:	001c                	0x1c
     9fe:	0100                	addi	s0,sp,128
     a00:	1d400763          	beq	zero,s4,bce <_start-0x432>
     a04:	0000                	unimp
     a06:	1d6c                	addi	a1,sp,700
     a08:	0000                	unimp
     a0a:	6301                	0x6301
     a0c:	001d9c07          	0x1d9c07
     a10:	c000                	sw	s0,0(s0)
     a12:	001d                	c.nop	7
     a14:	0100                	addi	s0,sp,128
     a16:	40070063          	beqz	a4,e16 <_start-0x1ea>
     a1a:	001d                	c.nop	7
     a1c:	6c00                	flw	fs0,24(s0)
     a1e:	001d                	c.nop	7
     a20:	0100                	addi	s0,sp,128
     a22:	0765                	addi	a4,a4,25
     a24:	1d9c                	addi	a5,sp,752
     a26:	0000                	unimp
     a28:	1dc0                	addi	s0,sp,756
     a2a:	0000                	unimp
     a2c:	6501                	0x6501
     a2e:	0700                	addi	s0,sp,896
     a30:	1d40                	addi	s0,sp,692
     a32:	0000                	unimp
     a34:	1d6c                	addi	a1,sp,700
     a36:	0000                	unimp
     a38:	6401                	0x6401
     a3a:	001d9c07          	0x1d9c07
     a3e:	c000                	sw	s0,0(s0)
     a40:	001d                	c.nop	7
     a42:	0100                	addi	s0,sp,128
     a44:	0064                	addi	s1,sp,12
     a46:	001d4007          	flq	ft0,1(s10)
     a4a:	6c00                	flw	fs0,24(s0)
     a4c:	001d                	c.nop	7
     a4e:	0100                	addi	s0,sp,128
     a50:	1d9c0763          	beq	s8,s9,c1e <_start-0x3e2>
     a54:	0000                	unimp
     a56:	1dc0                	addi	s0,sp,756
     a58:	0000                	unimp
     a5a:	6301                	0x6301
     a5c:	0700                	addi	s0,sp,896
     a5e:	1d48                	addi	a0,sp,692
     a60:	0000                	unimp
     a62:	1d6c                	addi	a1,sp,700
     a64:	0000                	unimp
     a66:	6601                	0x6601
     a68:	001d9c07          	0x1d9c07
     a6c:	c000                	sw	s0,0(s0)
     a6e:	001d                	c.nop	7
     a70:	0100                	addi	s0,sp,128
     a72:	0066                	c.slli	zero,0x19
     a74:	001d4807          	flq	fa6,1(s10)
     a78:	4c00                	lw	s0,24(s0)
     a7a:	001d                	c.nop	7
     a7c:	0100                	addi	s0,sp,128
     a7e:	0766                	slli	a4,a4,0x19
     a80:	1dac                	addi	a1,sp,760
     a82:	0000                	unimp
     a84:	1dc0                	addi	s0,sp,756
     a86:	0000                	unimp
     a88:	6601                	0x6601
     a8a:	0700                	addi	s0,sp,896
     a8c:	1d48                	addi	a0,sp,692
     a8e:	0000                	unimp
     a90:	1d4c                	addi	a1,sp,692
     a92:	0000                	unimp
     a94:	6401                	0x6401
     a96:	001dac07          	flw	fs8,1(s11)
     a9a:	c000                	sw	s0,0(s0)
     a9c:	001d                	c.nop	7
     a9e:	0100                	addi	s0,sp,128
     aa0:	0064                	addi	s1,sp,12
     aa2:	001d4807          	flq	fa6,1(s10)
     aa6:	4c00                	lw	s0,24(s0)
     aa8:	001d                	c.nop	7
     aaa:	0100                	addi	s0,sp,128
     aac:	1dac0763          	beq	s8,s10,c7a <_start-0x386>
     ab0:	0000                	unimp
     ab2:	1dc0                	addi	s0,sp,756
     ab4:	0000                	unimp
     ab6:	6301                	0x6301
     ab8:	0700                	addi	s0,sp,896
     aba:	1d50                	addi	a2,sp,692
     abc:	0000                	unimp
     abe:	1d54                	addi	a3,sp,692
     ac0:	0000                	unimp
     ac2:	6501                	0x6501
     ac4:	001d9c07          	0x1d9c07
     ac8:	ac00                	fsd	fs0,24(s0)
     aca:	001d                	c.nop	7
     acc:	0100                	addi	s0,sp,128
     ace:	0065                	c.nop	25
     ad0:	001d5007          	0x1d5007
     ad4:	5400                	lw	s0,40(s0)
     ad6:	001d                	c.nop	7
     ad8:	0100                	addi	s0,sp,128
     ada:	1d9c075b          	0x1d9c075b
     ade:	0000                	unimp
     ae0:	00001da7          	0x1da7
     ae4:	5b01                	li	s6,-32
     ae6:	001da707          	flw	fa4,1(s11)
     aea:	ac00                	fsd	fs0,24(s0)
     aec:	001d                	c.nop	7
     aee:	0300                	addi	s0,sp,384
     af0:	0186                	slli	gp,gp,0x1
     af2:	009f 5007 001d      	0x1d5007009f
     af8:	5400                	lw	s0,40(s0)
     afa:	001d                	c.nop	7
     afc:	0100                	addi	s0,sp,128
     afe:	1d9c0763          	beq	s8,s9,ccc <_start-0x334>
     b02:	0000                	unimp
     b04:	1dac                	addi	a1,sp,760
     b06:	0000                	unimp
     b08:	6301                	0x6301
     b0a:	0700                	addi	s0,sp,896
     b0c:	1c94                	addi	a3,sp,624
     b0e:	0000                	unimp
     b10:	1c98                	addi	a4,sp,624
     b12:	0000                	unimp
     b14:	5901                	li	s2,-32
     b16:	001d1007          	0x1d1007
     b1a:	4000                	lw	s0,0(s0)
     b1c:	001d                	c.nop	7
     b1e:	0100                	addi	s0,sp,128
     b20:	0759                	addi	a4,a4,22
     b22:	1dc0                	addi	s0,sp,756
     b24:	0000                	unimp
     b26:	1de4                	addi	s1,sp,764
     b28:	0000                	unimp
     b2a:	5901                	li	s2,-32
     b2c:	0700                	addi	s0,sp,896
     b2e:	1c94                	addi	a3,sp,624
     b30:	0000                	unimp
     b32:	1c98                	addi	a4,sp,624
     b34:	0000                	unimp
     b36:	6601                	0x6601
     b38:	001d1007          	0x1d1007
     b3c:	4000                	lw	s0,0(s0)
     b3e:	001d                	c.nop	7
     b40:	0100                	addi	s0,sp,128
     b42:	0766                	slli	a4,a4,0x19
     b44:	1dc0                	addi	s0,sp,756
     b46:	0000                	unimp
     b48:	1de4                	addi	s1,sp,764
     b4a:	0000                	unimp
     b4c:	6601                	0x6601
     b4e:	0700                	addi	s0,sp,896
     b50:	1c94                	addi	a3,sp,624
     b52:	0000                	unimp
     b54:	1c98                	addi	a4,sp,624
     b56:	0000                	unimp
     b58:	6301                	0x6301
     b5a:	001d1007          	0x1d1007
     b5e:	4000                	lw	s0,0(s0)
     b60:	001d                	c.nop	7
     b62:	0100                	addi	s0,sp,128
     b64:	1dc00763          	beq	zero,t3,d32 <_start-0x2ce>
     b68:	0000                	unimp
     b6a:	1de4                	addi	s1,sp,764
     b6c:	0000                	unimp
     b6e:	6301                	0x6301
     b70:	0700                	addi	s0,sp,896
     b72:	1d10                	addi	a2,sp,688
     b74:	0000                	unimp
     b76:	1d40                	addi	s0,sp,692
     b78:	0000                	unimp
     b7a:	5901                	li	s2,-32
     b7c:	001dc007          	flq	ft0,1(s11)
     b80:	e400                	fsw	fs0,8(s0)
     b82:	001d                	c.nop	7
     b84:	0100                	addi	s0,sp,128
     b86:	0059                	c.nop	22
     b88:	001d1007          	0x1d1007
     b8c:	4000                	lw	s0,0(s0)
     b8e:	001d                	c.nop	7
     b90:	0100                	addi	s0,sp,128
     b92:	0766                	slli	a4,a4,0x19
     b94:	1dc0                	addi	s0,sp,756
     b96:	0000                	unimp
     b98:	1de4                	addi	s1,sp,764
     b9a:	0000                	unimp
     b9c:	6601                	0x6601
     b9e:	0700                	addi	s0,sp,896
     ba0:	1d10                	addi	a2,sp,688
     ba2:	0000                	unimp
     ba4:	1d40                	addi	s0,sp,692
     ba6:	0000                	unimp
     ba8:	6301                	0x6301
     baa:	001dc007          	flq	ft0,1(s11)
     bae:	e400                	fsw	fs0,8(s0)
     bb0:	001d                	c.nop	7
     bb2:	0100                	addi	s0,sp,128
     bb4:	1c070063          	beqz	a4,d74 <_start-0x28c>
     bb8:	001d                	c.nop	7
     bba:	4000                	lw	s0,0(s0)
     bbc:	001d                	c.nop	7
     bbe:	0100                	addi	s0,sp,128
     bc0:	1dc00767          	jalr	a4,476(zero) # 0 <_start-0x1000>
     bc4:	0000                	unimp
     bc6:	1de4                	addi	s1,sp,764
     bc8:	0000                	unimp
     bca:	6701                	0x6701
     bcc:	0700                	addi	s0,sp,896
     bce:	1d1c                	addi	a5,sp,688
     bd0:	0000                	unimp
     bd2:	1d20                	addi	s0,sp,696
     bd4:	0000                	unimp
     bd6:	6701                	0x6701
     bd8:	001dd007          	0x1dd007
     bdc:	e400                	fsw	fs0,8(s0)
     bde:	001d                	c.nop	7
     be0:	0100                	addi	s0,sp,128
     be2:	1c070067          	jr	448(a4) # b1c0 <__rodata_end+0x9234>
     be6:	001d                	c.nop	7
     be8:	2000                	fld	fs0,0(s0)
     bea:	001d                	c.nop	7
     bec:	0100                	addi	s0,sp,128
     bee:	0766                	slli	a4,a4,0x19
     bf0:	1dd0                	addi	a2,sp,756
     bf2:	0000                	unimp
     bf4:	1de4                	addi	s1,sp,764
     bf6:	0000                	unimp
     bf8:	6601                	0x6601
     bfa:	0700                	addi	s0,sp,896
     bfc:	1d1c                	addi	a5,sp,688
     bfe:	0000                	unimp
     c00:	1d20                	addi	s0,sp,696
     c02:	0000                	unimp
     c04:	6301                	0x6301
     c06:	001dd007          	0x1dd007
     c0a:	e400                	fsw	fs0,8(s0)
     c0c:	001d                	c.nop	7
     c0e:	0100                	addi	s0,sp,128
     c10:	24070063          	beqz	a4,e50 <_start-0x1b0>
     c14:	001d                	c.nop	7
     c16:	2800                	fld	fs0,16(s0)
     c18:	001d                	c.nop	7
     c1a:	0100                	addi	s0,sp,128
     c1c:	0759                	addi	a4,a4,22
     c1e:	1dc0                	addi	s0,sp,756
     c20:	0000                	unimp
     c22:	1dd0                	addi	a2,sp,756
     c24:	0000                	unimp
     c26:	5901                	li	s2,-32
     c28:	0700                	addi	s0,sp,896
     c2a:	1d24                	addi	s1,sp,696
     c2c:	0000                	unimp
     c2e:	1d28                	addi	a0,sp,696
     c30:	0000                	unimp
     c32:	5b01                	li	s6,-32
     c34:	001dc007          	flq	ft0,1(s11)
     c38:	cb00                	sw	s0,16(a4)
     c3a:	001d                	c.nop	7
     c3c:	0100                	addi	s0,sp,128
     c3e:	1dcb075b          	0x1dcb075b
     c42:	0000                	unimp
     c44:	1dd0                	addi	a2,sp,756
     c46:	0000                	unimp
     c48:	9f018703          	lb	a4,-1552(gp)
     c4c:	0700                	addi	s0,sp,896
     c4e:	1d24                	addi	s1,sp,696
     c50:	0000                	unimp
     c52:	1d28                	addi	a0,sp,696
     c54:	0000                	unimp
     c56:	6301                	0x6301
     c58:	001dc007          	flq	ft0,1(s11)
     c5c:	d000                	sw	s0,32(s0)
     c5e:	001d                	c.nop	7
     c60:	0100                	addi	s0,sp,128
     c62:	f4070063          	beqz	a4,3a2 <_start-0xc5e>
     c66:	001d                	c.nop	7
     c68:	4000                	lw	s0,0(s0)
     c6a:	001e                	c.slli	zero,0x7
     c6c:	0100                	addi	s0,sp,128
     c6e:	075a                	slli	a4,a4,0x16
     c70:	1e40                	addi	s0,sp,820
     c72:	0000                	unimp
     c74:	1e6c                	addi	a1,sp,828
     c76:	0000                	unimp
     c78:	6201                	0x6201
     c7a:	001e6c07          	0x1e6c07
     c7e:	7300                	flw	fs0,32(a4)
     c80:	001e                	c.slli	zero,0x7
     c82:	0100                	addi	s0,sp,128
     c84:	075a                	slli	a4,a4,0x16
     c86:	00001e73          	csrrw	t3,ustatus,zero
     c8a:	1e74                	addi	a3,sp,828
     c8c:	0000                	unimp
     c8e:	a304                	fsd	fs1,0(a4)
     c90:	5a01                	li	s4,-32
     c92:	079f 1e74 0000      	0x1e74079f
     c98:	1e80                	addi	s0,sp,880
     c9a:	0000                	unimp
     c9c:	5a01                	li	s4,-32
     c9e:	001e8007          	0x1e8007
     ca2:	d400                	sw	s0,40(s0)
     ca4:	001e                	c.slli	zero,0x7
     ca6:	0100                	addi	s0,sp,128
     ca8:	0762                	slli	a4,a4,0x18
     caa:	1ed4                	addi	a3,sp,884
     cac:	0000                	unimp
     cae:	00001edb          	0x1edb
     cb2:	5a01                	li	s4,-32
     cb4:	001edb07          	0x1edb07
     cb8:	1400                	addi	s0,sp,544
     cba:	001f 0100 0062      	0x620100001f
     cc0:	001df407          	0x1df407
     cc4:	3800                	fld	fs0,48(s0)
     cc6:	001e                	c.slli	zero,0x7
     cc8:	0100                	addi	s0,sp,128
     cca:	1e38075b          	0x1e38075b
     cce:	0000                	unimp
     cd0:	1e48                	addi	a0,sp,820
     cd2:	0000                	unimp
     cd4:	5801                	li	a6,-32
     cd6:	001e4807          	flq	fa6,1(t3) # 1a001 <__rodata_end+0x18075>
     cda:	7300                	flw	fs0,32(a4)
     cdc:	001e                	c.slli	zero,0x7
     cde:	0100                	addi	s0,sp,128
     ce0:	1e73075b          	0x1e73075b
     ce4:	0000                	unimp
     ce6:	1e74                	addi	a3,sp,828
     ce8:	0000                	unimp
     cea:	a304                	fsd	fs1,0(a4)
     cec:	5b01                	li	s6,-32
     cee:	079f 1e74 0000      	0x1e74079f
     cf4:	1f14                	addi	a3,sp,944
     cf6:	0000                	unimp
     cf8:	5801                	li	a6,-32
     cfa:	0700                	addi	s0,sp,896
     cfc:	1df4                	addi	a3,sp,764
     cfe:	0000                	unimp
     d00:	1e38                	addi	a4,sp,824
     d02:	0000                	unimp
     d04:	5c01                	li	s8,-32
     d06:	001e3807          	fld	fa6,1(t3)
     d0a:	6000                	flw	fs0,0(s0)
     d0c:	001e                	c.slli	zero,0x7
     d0e:	0100                	addi	s0,sp,128
     d10:	0759                	addi	a4,a4,22
     d12:	1e60                	addi	s0,sp,828
     d14:	0000                	unimp
     d16:	00001e73          	csrrw	t3,ustatus,zero
     d1a:	5d01                	li	s10,-32
     d1c:	001e7307          	0x1e7307
     d20:	7400                	flw	fs0,40(s0)
     d22:	001e                	c.slli	zero,0x7
     d24:	0400                	addi	s0,sp,512
     d26:	9f5c01a3          	sb	s5,-1565(s8)
     d2a:	001e7407          	0x1e7407
     d2e:	1400                	addi	s0,sp,544
     d30:	001f 0100 0059      	0x590100001f
     d36:	001e3407          	fld	fs0,1(t3)
     d3a:	6000                	flw	fs0,0(s0)
     d3c:	001e                	c.slli	zero,0x7
     d3e:	0100                	addi	s0,sp,128
     d40:	0759                	addi	a4,a4,22
     d42:	1e60                	addi	s0,sp,828
     d44:	0000                	unimp
     d46:	00001e73          	csrrw	t3,ustatus,zero
     d4a:	5d01                	li	s10,-32
     d4c:	001e7307          	0x1e7307
     d50:	7400                	flw	fs0,40(s0)
     d52:	001e                	c.slli	zero,0x7
     d54:	0400                	addi	s0,sp,512
     d56:	9f5c01a3          	sb	s5,-1565(s8)
     d5a:	001e7407          	0x1e7407
     d5e:	1400                	addi	s0,sp,544
     d60:	001f 0100 0059      	0x590100001f
     d66:	001e3407          	fld	fs0,1(t3)
     d6a:	4800                	lw	s0,16(s0)
     d6c:	001e                	c.slli	zero,0x7
     d6e:	0100                	addi	s0,sp,128
     d70:	0758                	addi	a4,sp,900
     d72:	1e48                	addi	a0,sp,820
     d74:	0000                	unimp
     d76:	00001e73          	csrrw	t3,ustatus,zero
     d7a:	5b01                	li	s6,-32
     d7c:	001e7307          	0x1e7307
     d80:	7400                	flw	fs0,40(s0)
     d82:	001e                	c.slli	zero,0x7
     d84:	0400                	addi	s0,sp,512
     d86:	9f5b01a3          	sb	s5,-1565(s6)
     d8a:	001e7407          	0x1e7407
     d8e:	1400                	addi	s0,sp,544
     d90:	001f 0100 0058      	0x580100001f
     d96:	001e3407          	fld	fs0,1(t3)
     d9a:	3800                	fld	fs0,48(s0)
     d9c:	001e                	c.slli	zero,0x7
     d9e:	0100                	addi	s0,sp,128
     da0:	0762                	slli	a4,a4,0x18
     da2:	1e38                	addi	a4,sp,824
     da4:	0000                	unimp
     da6:	1e40                	addi	s0,sp,820
     da8:	0000                	unimp
     daa:	5a01                	li	s4,-32
     dac:	001e4007          	flq	ft0,1(t3)
     db0:	6c00                	flw	fs0,24(s0)
     db2:	001e                	c.slli	zero,0x7
     db4:	0100                	addi	s0,sp,128
     db6:	0762                	slli	a4,a4,0x18
     db8:	1e6c                	addi	a1,sp,828
     dba:	0000                	unimp
     dbc:	00001e73          	csrrw	t3,ustatus,zero
     dc0:	5a01                	li	s4,-32
     dc2:	001e7307          	0x1e7307
     dc6:	7400                	flw	fs0,40(s0)
     dc8:	001e                	c.slli	zero,0x7
     dca:	0400                	addi	s0,sp,512
     dcc:	9f5a01a3          	sb	s5,-1565(s4)
     dd0:	001e7407          	0x1e7407
     dd4:	8000                	0x8000
     dd6:	001e                	c.slli	zero,0x7
     dd8:	0100                	addi	s0,sp,128
     dda:	075a                	slli	a4,a4,0x16
     ddc:	1e80                	addi	s0,sp,880
     dde:	0000                	unimp
     de0:	1ed4                	addi	a3,sp,884
     de2:	0000                	unimp
     de4:	6201                	0x6201
     de6:	001ed407          	0x1ed407
     dea:	db00                	sw	s0,48(a4)
     dec:	001e                	c.slli	zero,0x7
     dee:	0100                	addi	s0,sp,128
     df0:	075a                	slli	a4,a4,0x16
     df2:	00001edb          	0x1edb
     df6:	1f14                	addi	a3,sp,944
     df8:	0000                	unimp
     dfa:	6201                	0x6201
     dfc:	0700                	addi	s0,sp,896
     dfe:	1e34                	addi	a3,sp,824
     e00:	0000                	unimp
     e02:	1e64                	addi	s1,sp,828
     e04:	0000                	unimp
     e06:	6301                	0x6301
     e08:	001e6407          	0x1e6407
     e0c:	7300                	flw	fs0,32(a4)
     e0e:	001e                	c.slli	zero,0x7
     e10:	0100                	addi	s0,sp,128
     e12:	075c                	addi	a5,sp,900
     e14:	00001e73          	csrrw	t3,ustatus,zero
     e18:	1e74                	addi	a3,sp,828
     e1a:	0000                	unimp
     e1c:	a30e                	fsd	ft3,384(sp)
     e1e:	5c01                	li	s8,-32
     e20:	1c5b01a3          	sb	t0,451(s6)
     e24:	2631                	jal	1130 <trap_vector+0x88>
     e26:	225b01a3          	sb	t0,547(s6)
     e2a:	079f 1e74 0000      	0x1e74079f
     e30:	1f14                	addi	a3,sp,944
     e32:	0000                	unimp
     e34:	6301                	0x6301
     e36:	0700                	addi	s0,sp,896
     e38:	1e34                	addi	a3,sp,824
     e3a:	0000                	unimp
     e3c:	1e38                	addi	a4,sp,824
     e3e:	0000                	unimp
     e40:	6301                	0x6301
     e42:	001e7407          	0x1e7407
     e46:	a000                	fsd	fs0,0(s0)
     e48:	001e                	c.slli	zero,0x7
     e4a:	0100                	addi	s0,sp,128
     e4c:	1ed40763          	beq	s0,a3,103a <_init+0x2a>
     e50:	0000                	unimp
     e52:	1ee0                	addi	s0,sp,892
     e54:	0000                	unimp
     e56:	6301                	0x6301
     e58:	001f0407          	0x1f0407
     e5c:	1400                	addi	s0,sp,544
     e5e:	001f 0100 0063      	0x630100001f
     e64:	001e3407          	fld	fs0,1(t3)
     e68:	3800                	fld	fs0,48(s0)
     e6a:	001e                	c.slli	zero,0x7
     e6c:	0100                	addi	s0,sp,128
     e6e:	0758                	addi	a4,sp,900
     e70:	1e74                	addi	a3,sp,828
     e72:	0000                	unimp
     e74:	1ea0                	addi	s0,sp,888
     e76:	0000                	unimp
     e78:	5801                	li	a6,-32
     e7a:	001ed407          	0x1ed407
     e7e:	e000                	fsw	fs0,0(s0)
     e80:	001e                	c.slli	zero,0x7
     e82:	0100                	addi	s0,sp,128
     e84:	0758                	addi	a4,sp,900
     e86:	1f04                	addi	s1,sp,944
     e88:	0000                	unimp
     e8a:	1f14                	addi	a3,sp,944
     e8c:	0000                	unimp
     e8e:	5801                	li	a6,-32
     e90:	0700                	addi	s0,sp,896
     e92:	1e34                	addi	a3,sp,824
     e94:	0000                	unimp
     e96:	1e38                	addi	a4,sp,824
     e98:	0000                	unimp
     e9a:	6201                	0x6201
     e9c:	001e7407          	0x1e7407
     ea0:	8000                	0x8000
     ea2:	001e                	c.slli	zero,0x7
     ea4:	0100                	addi	s0,sp,128
     ea6:	075a                	slli	a4,a4,0x16
     ea8:	1e80                	addi	s0,sp,880
     eaa:	0000                	unimp
     eac:	1ea0                	addi	s0,sp,888
     eae:	0000                	unimp
     eb0:	6201                	0x6201
     eb2:	001ed407          	0x1ed407
     eb6:	db00                	sw	s0,48(a4)
     eb8:	001e                	c.slli	zero,0x7
     eba:	0100                	addi	s0,sp,128
     ebc:	075a                	slli	a4,a4,0x16
     ebe:	00001edb          	0x1edb
     ec2:	1ee0                	addi	s0,sp,892
     ec4:	0000                	unimp
     ec6:	6201                	0x6201
     ec8:	001f0407          	0x1f0407
     ecc:	1400                	addi	s0,sp,544
     ece:	001f 0100 0062      	0x620100001f
     ed4:	001e7407          	0x1e7407
     ed8:	a000                	fsd	fs0,0(s0)
     eda:	001e                	c.slli	zero,0x7
     edc:	0100                	addi	s0,sp,128
     ede:	1ed40763          	beq	s0,a3,10cc <trap_vector+0x24>
     ee2:	0000                	unimp
     ee4:	1ee0                	addi	s0,sp,892
     ee6:	0000                	unimp
     ee8:	6301                	0x6301
     eea:	001f0407          	0x1f0407
     eee:	1400                	addi	s0,sp,544
     ef0:	001f 0100 0063      	0x630100001f
     ef6:	001e7407          	0x1e7407
     efa:	a000                	fsd	fs0,0(s0)
     efc:	001e                	c.slli	zero,0x7
     efe:	0100                	addi	s0,sp,128
     f00:	0758                	addi	a4,sp,900
     f02:	1ed4                	addi	a3,sp,884
     f04:	0000                	unimp
     f06:	1ee0                	addi	s0,sp,892
     f08:	0000                	unimp
     f0a:	5801                	li	a6,-32
     f0c:	001f0407          	0x1f0407
     f10:	1400                	addi	s0,sp,544
     f12:	001f 0100 0058      	0x580100001f
     f18:	001e7407          	0x1e7407
     f1c:	8000                	0x8000
     f1e:	001e                	c.slli	zero,0x7
     f20:	0100                	addi	s0,sp,128
     f22:	075a                	slli	a4,a4,0x16
     f24:	1e80                	addi	s0,sp,880
     f26:	0000                	unimp
     f28:	1ea0                	addi	s0,sp,888
     f2a:	0000                	unimp
     f2c:	6201                	0x6201
     f2e:	001ed407          	0x1ed407
     f32:	db00                	sw	s0,48(a4)
     f34:	001e                	c.slli	zero,0x7
     f36:	0100                	addi	s0,sp,128
     f38:	075a                	slli	a4,a4,0x16
     f3a:	00001edb          	0x1edb
     f3e:	1ee0                	addi	s0,sp,892
     f40:	0000                	unimp
     f42:	6201                	0x6201
     f44:	001f0407          	0x1f0407
     f48:	1400                	addi	s0,sp,544
     f4a:	001f 0100 0062      	0x620100001f
     f50:	001e7c07          	0x1e7c07
     f54:	9c00                	0x9c00
     f56:	001e                	c.slli	zero,0x7
     f58:	0100                	addi	s0,sp,128
     f5a:	0764                	addi	s1,sp,908
     f5c:	1e9c                	addi	a5,sp,880
     f5e:	0000                	unimp
     f60:	1e9f 0000 5c01      	0x5c0100001e9f
     f66:	001e9f07          	0x1e9f07
     f6a:	a000                	fsd	fs0,0(s0)
     f6c:	001e                	c.slli	zero,0x7
     f6e:	0b00                	addi	s0,sp,400
     f70:	0079                	c.nop	30
     f72:	0078                	addi	a4,sp,12
     f74:	321c                	fld	fa5,32(a2)
     f76:	7826                	flw	fa6,104(sp)
     f78:	2200                	fld	fs0,0(a2)
     f7a:	079f 1ed4 0000      	0x1ed4079f
     f80:	1ee0                	addi	s0,sp,892
     f82:	0000                	unimp
     f84:	6401                	0x6401
     f86:	001f0407          	0x1f0407
     f8a:	1400                	addi	s0,sp,544
     f8c:	001f 0100 0064      	0x640100001f
     f92:	001e7c07          	0x1e7c07
     f96:	8000                	0x8000
     f98:	001e                	c.slli	zero,0x7
     f9a:	0100                	addi	s0,sp,128
     f9c:	0764                	addi	s1,sp,908
     f9e:	1ed4                	addi	a3,sp,884
     fa0:	0000                	unimp
     fa2:	1ee0                	addi	s0,sp,892
     fa4:	0000                	unimp
     fa6:	6401                	0x6401
     fa8:	0700                	addi	s0,sp,896
     faa:	1e7c                	addi	a5,sp,828
     fac:	0000                	unimp
     fae:	1e80                	addi	s0,sp,880
     fb0:	0000                	unimp
     fb2:	5801                	li	a6,-32
     fb4:	001ed407          	0x1ed407
     fb8:	e000                	fsw	fs0,0(s0)
     fba:	001e                	c.slli	zero,0x7
     fbc:	0100                	addi	s0,sp,128
     fbe:	0058                	addi	a4,sp,4
     fc0:	001e7c07          	0x1e7c07
     fc4:	8000                	0x8000
     fc6:	001e                	c.slli	zero,0x7
     fc8:	0100                	addi	s0,sp,128
     fca:	075a                	slli	a4,a4,0x16
     fcc:	1ed4                	addi	a3,sp,884
     fce:	0000                	unimp
     fd0:	00001edb          	0x1edb
     fd4:	5a01                	li	s4,-32
     fd6:	001edb07          	0x1edb07
     fda:	e000                	fsw	fs0,0(s0)
     fdc:	001e                	c.slli	zero,0x7
     fde:	0100                	addi	s0,sp,128
     fe0:	0062                	c.slli	zero,0x18
     fe2:	001e8407          	0x1e8407
     fe6:	8800                	0x8800
     fe8:	001e                	c.slli	zero,0x7
     fea:	0100                	addi	s0,sp,128
     fec:	1f040763          	beq	s0,a6,11da <trap_vector+0x132>
     ff0:	0000                	unimp
     ff2:	1f14                	addi	a3,sp,944
     ff4:	0000                	unimp
     ff6:	6301                	0x6301
     ff8:	0700                	addi	s0,sp,896
     ffa:	1e84                	addi	s1,sp,880
     ffc:	0000                	unimp
     ffe:	1e88                	addi	a0,sp,880
    1000:	0000                	unimp
    1002:	5b01                	li	s6,-32
    1004:	001f0407          	0x1f0407
    1008:	0f00                	addi	s0,sp,912
    100a:	001f 0100 075b      	0x75b0100001f
    1010:	00001f0f          	0x1f0f
    1014:	1f14                	addi	a3,sp,944
    1016:	0000                	unimp
    1018:	9f018403          	lb	s0,-1552(gp)
    101c:	0700                	addi	s0,sp,896
    101e:	1e84                	addi	s1,sp,880
    1020:	0000                	unimp
    1022:	1e88                	addi	a0,sp,880
    1024:	0000                	unimp
    1026:	6201                	0x6201
    1028:	001f0407          	0x1f0407
    102c:	1400                	addi	s0,sp,544
    102e:	001f 0100 0062      	0x620100001f
    1034:	001e3c07          	fld	fs8,1(t3)
    1038:	4000                	lw	s0,0(s0)
    103a:	001e                	c.slli	zero,0x7
    103c:	0100                	addi	s0,sp,128
    103e:	0759                	addi	a4,a4,22
    1040:	1ea0                	addi	s0,sp,888
    1042:	0000                	unimp
    1044:	1ed4                	addi	a3,sp,884
    1046:	0000                	unimp
    1048:	5901                	li	s2,-32
    104a:	001ee007          	0x1ee007
    104e:	0400                	addi	s0,sp,512
    1050:	001f 0100 0059      	0x590100001f
    1056:	001e3c07          	fld	fs8,1(t3)
    105a:	4000                	lw	s0,0(s0)
    105c:	001e                	c.slli	zero,0x7
    105e:	0100                	addi	s0,sp,128
    1060:	0764                	addi	s1,sp,908
    1062:	1ea0                	addi	s0,sp,888
    1064:	0000                	unimp
    1066:	1ed4                	addi	a3,sp,884
    1068:	0000                	unimp
    106a:	6401                	0x6401
    106c:	001ee007          	0x1ee007
    1070:	0400                	addi	s0,sp,512
    1072:	001f 0100 0064      	0x640100001f
    1078:	001e3c07          	fld	fs8,1(t3)
    107c:	4000                	lw	s0,0(s0)
    107e:	001e                	c.slli	zero,0x7
    1080:	0100                	addi	s0,sp,128
    1082:	075a                	slli	a4,a4,0x16
    1084:	1ea0                	addi	s0,sp,888
    1086:	0000                	unimp
    1088:	1ed4                	addi	a3,sp,884
    108a:	0000                	unimp
    108c:	6201                	0x6201
    108e:	001ee007          	0x1ee007
    1092:	0400                	addi	s0,sp,512
    1094:	001f 0100 0062      	0x620100001f
    109a:	001ea407          	flw	fs0,1(t4)
    109e:	d400                	sw	s0,40(s0)
    10a0:	001e                	c.slli	zero,0x7
    10a2:	0100                	addi	s0,sp,128
    10a4:	0759                	addi	a4,a4,22
    10a6:	1ee0                	addi	s0,sp,892
    10a8:	0000                	unimp
    10aa:	1f04                	addi	s1,sp,944
    10ac:	0000                	unimp
    10ae:	5901                	li	s2,-32
    10b0:	0700                	addi	s0,sp,896
    10b2:	1ea4                	addi	s1,sp,888
    10b4:	0000                	unimp
    10b6:	1ed4                	addi	a3,sp,884
    10b8:	0000                	unimp
    10ba:	6401                	0x6401
    10bc:	001ee007          	0x1ee007
    10c0:	0400                	addi	s0,sp,512
    10c2:	001f 0100 0064      	0x640100001f
    10c8:	001ea407          	flw	fs0,1(t4)
    10cc:	d400                	sw	s0,40(s0)
    10ce:	001e                	c.slli	zero,0x7
    10d0:	0100                	addi	s0,sp,128
    10d2:	0762                	slli	a4,a4,0x18
    10d4:	1ee0                	addi	s0,sp,892
    10d6:	0000                	unimp
    10d8:	1f04                	addi	s1,sp,944
    10da:	0000                	unimp
    10dc:	6201                	0x6201
    10de:	0700                	addi	s0,sp,896
    10e0:	1eb0                	addi	a2,sp,888
    10e2:	0000                	unimp
    10e4:	1ed4                	addi	a3,sp,884
    10e6:	0000                	unimp
    10e8:	6501                	0x6501
    10ea:	001ee007          	0x1ee007
    10ee:	0400                	addi	s0,sp,512
    10f0:	001f 0100 0065      	0x650100001f
    10f6:	001eb007          	fld	ft0,1(t4)
    10fa:	b400                	fsd	fs0,40(s0)
    10fc:	001e                	c.slli	zero,0x7
    10fe:	0100                	addi	s0,sp,128
    1100:	0765                	addi	a4,a4,25
    1102:	1ef0                	addi	a2,sp,892
    1104:	0000                	unimp
    1106:	1f04                	addi	s1,sp,944
    1108:	0000                	unimp
    110a:	6501                	0x6501
    110c:	0700                	addi	s0,sp,896
    110e:	1eb0                	addi	a2,sp,888
    1110:	0000                	unimp
    1112:	1eb4                	addi	a3,sp,888
    1114:	0000                	unimp
    1116:	6401                	0x6401
    1118:	001ef007          	0x1ef007
    111c:	0400                	addi	s0,sp,512
    111e:	001f 0100 0064      	0x640100001f
    1124:	001eb007          	fld	ft0,1(t4)
    1128:	b400                	fsd	fs0,40(s0)
    112a:	001e                	c.slli	zero,0x7
    112c:	0100                	addi	s0,sp,128
    112e:	0762                	slli	a4,a4,0x18
    1130:	1ef0                	addi	a2,sp,892
    1132:	0000                	unimp
    1134:	1f04                	addi	s1,sp,944
    1136:	0000                	unimp
    1138:	6201                	0x6201
    113a:	0700                	addi	s0,sp,896
    113c:	1eb8                	addi	a4,sp,888
    113e:	0000                	unimp
    1140:	1ebc                	addi	a5,sp,888
    1142:	0000                	unimp
    1144:	5901                	li	s2,-32
    1146:	001ee007          	0x1ee007
    114a:	f000                	fsw	fs0,32(s0)
    114c:	001e                	c.slli	zero,0x7
    114e:	0100                	addi	s0,sp,128
    1150:	0059                	c.nop	22
    1152:	001eb807          	fld	fa6,1(t4)
    1156:	bc00                	fsd	fs0,56(s0)
    1158:	001e                	c.slli	zero,0x7
    115a:	0100                	addi	s0,sp,128
    115c:	1ee0075b          	0x1ee0075b
    1160:	0000                	unimp
    1162:	00001eeb          	0x1eeb
    1166:	5b01                	li	s6,-32
    1168:	001eeb07          	0x1eeb07
    116c:	f000                	fsw	fs0,32(s0)
    116e:	001e                	c.slli	zero,0x7
    1170:	0300                	addi	s0,sp,384
    1172:	0185                	addi	gp,gp,1
    1174:	009f b807 001e      	0x1eb807009f
    117a:	bc00                	fsd	fs0,56(s0)
    117c:	001e                	c.slli	zero,0x7
    117e:	0100                	addi	s0,sp,128
    1180:	0762                	slli	a4,a4,0x18
    1182:	1ee0                	addi	s0,sp,892
    1184:	0000                	unimp
    1186:	1ef0                	addi	a2,sp,892
    1188:	0000                	unimp
    118a:	6201                	0x6201
	...

Disassembly of section .debug_frame:

00000000 <.debug_frame>:
   0:	000c                	0xc
   2:	0000                	unimp
   4:	ffff                	0xffff
   6:	ffff                	0xffff
   8:	7c010003          	lb	zero,1984(sp)
   c:	0d01                	addi	s10,s10,0
   e:	0002                	c.slli64	zero
  10:	000c                	0xc
  12:	0000                	unimp
  14:	0000                	unimp
  16:	0000                	unimp
  18:	19bc                	addi	a5,sp,248
  1a:	0000                	unimp
  1c:	0074                	addi	a3,sp,12
  1e:	0000                	unimp
  20:	000c                	0xc
  22:	0000                	unimp
  24:	ffff                	0xffff
  26:	ffff                	0xffff
  28:	7c010003          	lb	zero,1984(sp)
  2c:	0d01                	addi	s10,s10,0
  2e:	0002                	c.slli64	zero
  30:	0024                	addi	s1,sp,8
  32:	0000                	unimp
  34:	0020                	addi	s0,sp,8
  36:	0000                	unimp
  38:	1a30                	addi	a2,sp,312
  3a:	0000                	unimp
  3c:	0198                	addi	a4,sp,192
  3e:	0000                	unimp
  40:	0e54                	addi	a3,sp,788
  42:	5010                	lw	a2,32(s0)
  44:	0188                	addi	a0,sp,192
  46:	0c44                	addi	s1,sp,532
  48:	0008                	0x8
  4a:	0a010403          	lb	s0,160(sp)
  4e:	020c                	addi	a1,sp,256
  50:	4410                	lw	a2,8(s0)
  52:	44c8                	lw	a0,12(s1)
  54:	000e                	c.slli	zero,0x3
  56:	0b44                	addi	s1,sp,404
  58:	003c                	addi	a5,sp,8
  5a:	0000                	unimp
  5c:	0020                	addi	s0,sp,8
  5e:	0000                	unimp
  60:	1bc8                	addi	a0,sp,500
  62:	0000                	unimp
  64:	022c                	addi	a1,sp,264
  66:	0000                	unimp
  68:	0e44                	addi	s1,sp,788
  6a:	4830                	lw	a2,80(s0)
  6c:	0492                	slli	s1,s1,0x4
  6e:	8864                	0x8864
  70:	8902                	jr	s2
  72:	81059303          	lh	t1,-2032(a1)
  76:	9401                	srai	s0,s0,0x20
  78:	9506                	add	a0,a0,ra
  7a:	97089607          	0x97089607
  7e:	6409                	lui	s0,0x2
  80:	c80a                	sw	sp,16(sp)
  82:	c144                	sw	s1,4(a0)
  84:	d444                	sw	s1,44(s0)
  86:	d544                	sw	s1,44(a0)
  88:	d644                	sw	s1,44(a2)
  8a:	d744                	sw	s1,44(a4)
  8c:	c94c                	sw	a1,20(a0)
  8e:	d244                	sw	s1,36(a2)
  90:	d348                	sw	a0,36(a4)
  92:	0e44                	addi	s1,sp,788
  94:	4400                	lw	s0,8(s0)
  96:	0034000b          	0x34000b
  9a:	0000                	unimp
  9c:	0020                	addi	s0,sp,8
  9e:	0000                	unimp
  a0:	1df4                	addi	a3,sp,764
  a2:	0000                	unimp
  a4:	0120                	addi	s0,sp,136
  a6:	0000                	unimp
  a8:	0e4c                	addi	a1,sp,788
  aa:	4820                	lw	s0,80(s0)
  ac:	885c0593          	addi	a1,s8,-1915
  b0:	8902                	jr	s2
  b2:	81049203          	lh	tp,-2032(s1)
  b6:	9401                	srai	s0,s0,0x20
  b8:	9506                	add	a0,a0,ra
  ba:	c80a6407          	0xc80a6407
  be:	c144                	sw	s1,4(a0)
  c0:	d444                	sw	s1,44(s0)
  c2:	d544                	sw	s1,44(a0)
  c4:	c94c                	sw	a1,20(a0)
  c6:	d344                	sw	s1,36(a4)
  c8:	d248                	sw	a0,36(a2)
  ca:	0e44                	addi	s1,sp,788
  cc:	4400                	lw	s0,8(s0)
  ce:	0018000b          	0x18000b
  d2:	0000                	unimp
  d4:	0020                	addi	s0,sp,8
  d6:	0000                	unimp
  d8:	1f14                	addi	a3,sp,944
  da:	0000                	unimp
  dc:	0060                	addi	s0,sp,12
  de:	0000                	unimp
  e0:	0e64                	addi	s1,sp,796
  e2:	5030                	lw	a2,96(s0)
  e4:	0181                	addi	gp,gp,0
  e6:	c160                	sw	s0,68(a0)
  e8:	0e48                	addi	a0,sp,788
	...

Disassembly of section .debug_rnglists:

00000000 <.debug_rnglists>:
   0:	0438                	addi	a4,sp,520
   2:	0000                	unimp
   4:	0005                	c.nop	1
   6:	0004                	0x4
   8:	0000                	unimp
   a:	0000                	unimp
   c:	c806                	sw	ra,16(sp)
   e:	c800001b          	0xc800001b
  12:	0600001b          	0x600001b
  16:	1bcc                	addi	a1,sp,500
  18:	0000                	unimp
  1a:	1bd0                	addi	a2,sp,500
  1c:	0000                	unimp
  1e:	d406                	sw	ra,40(sp)
  20:	d800001b          	0xd800001b
  24:	0600001b          	0x600001b
  28:	1bf8                	addi	a4,sp,508
  2a:	0000                	unimp
  2c:	1bfc                	addi	a5,sp,508
  2e:	0000                	unimp
  30:	0806                	slli	a6,a6,0x1
  32:	001c                	0x1c
  34:	1800                	addi	s0,sp,48
  36:	001c                	0x1c
  38:	0600                	addi	s0,sp,768
  3a:	1c30                	addi	a2,sp,568
  3c:	0000                	unimp
  3e:	1c38                	addi	a4,sp,568
  40:	0000                	unimp
  42:	4006                	0x4006
  44:	001c                	0x1c
  46:	4400                	lw	s0,8(s0)
  48:	001c                	0x1c
  4a:	0600                	addi	s0,sp,768
  4c:	1c4c                	addi	a1,sp,564
  4e:	0000                	unimp
  50:	1df4                	addi	a3,sp,764
  52:	0000                	unimp
  54:	0600                	addi	s0,sp,768
  56:	1c08                	addi	a0,sp,560
  58:	0000                	unimp
  5a:	1c0c                	addi	a1,sp,560
  5c:	0000                	unimp
  5e:	5006                	0x5006
  60:	001c                	0x1c
  62:	7400                	flw	fs0,40(s0)
  64:	001c                	0x1c
  66:	0600                	addi	s0,sp,768
  68:	1c78                	addi	a4,sp,572
  6a:	0000                	unimp
  6c:	1c7c                	addi	a5,sp,572
  6e:	0000                	unimp
  70:	b006                	fsd	ft1,32(sp)
  72:	001c                	0x1c
  74:	1000                	addi	s0,sp,32
  76:	001d                	c.nop	7
  78:	0600                	addi	s0,sp,768
  7a:	1d6c                	addi	a1,sp,700
  7c:	0000                	unimp
  7e:	1d9c                	addi	a5,sp,752
  80:	0000                	unimp
  82:	e406                	fsw	ft1,8(sp)
  84:	001d                	c.nop	7
  86:	f400                	fsw	fs0,40(s0)
  88:	001d                	c.nop	7
  8a:	0000                	unimp
  8c:	5006                	0x5006
  8e:	001c                	0x1c
  90:	7400                	flw	fs0,40(s0)
  92:	001c                	0x1c
  94:	0600                	addi	s0,sp,768
  96:	1c78                	addi	a4,sp,572
  98:	0000                	unimp
  9a:	1c7c                	addi	a5,sp,572
  9c:	0000                	unimp
  9e:	b006                	fsd	ft1,32(sp)
  a0:	001c                	0x1c
  a2:	1000                	addi	s0,sp,32
  a4:	001d                	c.nop	7
  a6:	0600                	addi	s0,sp,768
  a8:	1d6c                	addi	a1,sp,700
  aa:	0000                	unimp
  ac:	1d9c                	addi	a5,sp,752
  ae:	0000                	unimp
  b0:	e406                	fsw	ft1,8(sp)
  b2:	001d                	c.nop	7
  b4:	f400                	fsw	fs0,40(s0)
  b6:	001d                	c.nop	7
  b8:	0000                	unimp
  ba:	5006                	0x5006
  bc:	001c                	0x1c
  be:	7400                	flw	fs0,40(s0)
  c0:	001c                	0x1c
  c2:	0600                	addi	s0,sp,768
  c4:	1c78                	addi	a4,sp,572
  c6:	0000                	unimp
  c8:	1c7c                	addi	a5,sp,572
  ca:	0000                	unimp
  cc:	b006                	fsd	ft1,32(sp)
  ce:	001c                	0x1c
  d0:	1000                	addi	s0,sp,32
  d2:	001d                	c.nop	7
  d4:	0600                	addi	s0,sp,768
  d6:	1d6c                	addi	a1,sp,700
  d8:	0000                	unimp
  da:	1d9c                	addi	a5,sp,752
  dc:	0000                	unimp
  de:	e406                	fsw	ft1,8(sp)
  e0:	001d                	c.nop	7
  e2:	f400                	fsw	fs0,40(s0)
  e4:	001d                	c.nop	7
  e6:	0000                	unimp
  e8:	5806                	lw	a6,96(sp)
  ea:	001c                	0x1c
  ec:	5c00                	lw	s0,56(s0)
  ee:	001c                	0x1c
  f0:	0600                	addi	s0,sp,768
  f2:	1cb0                	addi	a2,sp,632
  f4:	0000                	unimp
  f6:	1cd4                	addi	a3,sp,628
  f8:	0000                	unimp
  fa:	d806                	sw	ra,48(sp)
  fc:	001c                	0x1c
  fe:	dc00                	sw	s0,56(s0)
 100:	001c                	0x1c
 102:	0600                	addi	s0,sp,768
 104:	1d6c                	addi	a1,sp,700
 106:	0000                	unimp
 108:	1d78                	addi	a4,sp,700
 10a:	0000                	unimp
 10c:	e406                	fsw	ft1,8(sp)
 10e:	001d                	c.nop	7
 110:	f400                	fsw	fs0,40(s0)
 112:	001d                	c.nop	7
 114:	0000                	unimp
 116:	b006                	fsd	ft1,32(sp)
 118:	001c                	0x1c
 11a:	d400                	sw	s0,40(s0)
 11c:	001c                	0x1c
 11e:	0600                	addi	s0,sp,768
 120:	1cd8                	addi	a4,sp,628
 122:	0000                	unimp
 124:	1cdc                	addi	a5,sp,628
 126:	0000                	unimp
 128:	6c06                	flw	fs8,64(sp)
 12a:	001d                	c.nop	7
 12c:	7800                	flw	fs0,48(s0)
 12e:	001d                	c.nop	7
 130:	0600                	addi	s0,sp,768
 132:	1de4                	addi	s1,sp,764
 134:	0000                	unimp
 136:	1df4                	addi	a3,sp,764
 138:	0000                	unimp
 13a:	0600                	addi	s0,sp,768
 13c:	1cb0                	addi	a2,sp,632
 13e:	0000                	unimp
 140:	1cd4                	addi	a3,sp,628
 142:	0000                	unimp
 144:	d806                	sw	ra,48(sp)
 146:	001c                	0x1c
 148:	dc00                	sw	s0,56(s0)
 14a:	001c                	0x1c
 14c:	0600                	addi	s0,sp,768
 14e:	1d6c                	addi	a1,sp,700
 150:	0000                	unimp
 152:	1d78                	addi	a4,sp,700
 154:	0000                	unimp
 156:	e406                	fsw	ft1,8(sp)
 158:	001d                	c.nop	7
 15a:	f400                	fsw	fs0,40(s0)
 15c:	001d                	c.nop	7
 15e:	0000                	unimp
 160:	b806                	fsd	ft1,48(sp)
 162:	001c                	0x1c
 164:	bc00                	fsd	fs0,56(s0)
 166:	001c                	0x1c
 168:	0600                	addi	s0,sp,768
 16a:	1d6c                	addi	a1,sp,700
 16c:	0000                	unimp
 16e:	1d78                	addi	a4,sp,700
 170:	0000                	unimp
 172:	0600                	addi	s0,sp,768
 174:	1cc0                	addi	s0,sp,628
 176:	0000                	unimp
 178:	1cc4                	addi	s1,sp,628
 17a:	0000                	unimp
 17c:	e406                	fsw	ft1,8(sp)
 17e:	001d                	c.nop	7
 180:	f400                	fsw	fs0,40(s0)
 182:	001d                	c.nop	7
 184:	0000                	unimp
 186:	6006                	flw	ft0,64(sp)
 188:	001c                	0x1c
 18a:	6400                	flw	fs0,8(s0)
 18c:	001c                	0x1c
 18e:	0600                	addi	s0,sp,768
 190:	1cdc                	addi	a5,sp,628
 192:	0000                	unimp
 194:	1d10                	addi	a2,sp,688
 196:	0000                	unimp
 198:	7806                	flw	fa6,96(sp)
 19a:	001d                	c.nop	7
 19c:	9c00                	0x9c00
 19e:	001d                	c.nop	7
 1a0:	0000                	unimp
 1a2:	e006                	fsw	ft1,0(sp)
 1a4:	001c                	0x1c
 1a6:	1000                	addi	s0,sp,32
 1a8:	001d                	c.nop	7
 1aa:	0600                	addi	s0,sp,768
 1ac:	1d78                	addi	a4,sp,700
 1ae:	0000                	unimp
 1b0:	1d9c                	addi	a5,sp,752
 1b2:	0000                	unimp
 1b4:	0600                	addi	s0,sp,768
 1b6:	1cec                	addi	a1,sp,636
 1b8:	0000                	unimp
 1ba:	1cf0                	addi	a2,sp,636
 1bc:	0000                	unimp
 1be:	8806                	mv	a6,ra
 1c0:	001d                	c.nop	7
 1c2:	9c00                	0x9c00
 1c4:	001d                	c.nop	7
 1c6:	0000                	unimp
 1c8:	f406                	fsw	ft1,40(sp)
 1ca:	001c                	0x1c
 1cc:	f800                	fsw	fs0,48(s0)
 1ce:	001c                	0x1c
 1d0:	0600                	addi	s0,sp,768
 1d2:	1d78                	addi	a4,sp,700
 1d4:	0000                	unimp
 1d6:	1d88                	addi	a0,sp,752
 1d8:	0000                	unimp
 1da:	0600                	addi	s0,sp,768
 1dc:	1c10                	addi	a2,sp,560
 1de:	0000                	unimp
 1e0:	1c14                	addi	a3,sp,560
 1e2:	0000                	unimp
 1e4:	7c06                	flw	fs8,96(sp)
 1e6:	001c                	0x1c
 1e8:	b000                	fsd	fs0,32(s0)
 1ea:	001c                	0x1c
 1ec:	0600                	addi	s0,sp,768
 1ee:	1d10                	addi	a2,sp,688
 1f0:	0000                	unimp
 1f2:	1d6c                	addi	a1,sp,700
 1f4:	0000                	unimp
 1f6:	9c06                	add	s8,s8,ra
 1f8:	001d                	c.nop	7
 1fa:	e400                	fsw	fs0,8(s0)
 1fc:	001d                	c.nop	7
 1fe:	0000                	unimp
 200:	8006                	c.mv	zero,ra
 202:	001c                	0x1c
 204:	b000                	fsd	fs0,32(s0)
 206:	001c                	0x1c
 208:	0600                	addi	s0,sp,768
 20a:	1d10                	addi	a2,sp,688
 20c:	0000                	unimp
 20e:	1d6c                	addi	a1,sp,700
 210:	0000                	unimp
 212:	9c06                	add	s8,s8,ra
 214:	001d                	c.nop	7
 216:	e400                	fsw	fs0,8(s0)
 218:	001d                	c.nop	7
 21a:	0000                	unimp
 21c:	8c06                	mv	s8,ra
 21e:	001c                	0x1c
 220:	9000                	0x9000
 222:	001c                	0x1c
 224:	0600                	addi	s0,sp,768
 226:	1d40                	addi	s0,sp,692
 228:	0000                	unimp
 22a:	1d6c                	addi	a1,sp,700
 22c:	0000                	unimp
 22e:	9c06                	add	s8,s8,ra
 230:	001d                	c.nop	7
 232:	c000                	sw	s0,0(s0)
 234:	001d                	c.nop	7
 236:	0000                	unimp
 238:	4006                	0x4006
 23a:	001d                	c.nop	7
 23c:	6c00                	flw	fs0,24(s0)
 23e:	001d                	c.nop	7
 240:	0600                	addi	s0,sp,768
 242:	1d9c                	addi	a5,sp,752
 244:	0000                	unimp
 246:	1dc0                	addi	s0,sp,756
 248:	0000                	unimp
 24a:	0600                	addi	s0,sp,768
 24c:	1d40                	addi	s0,sp,692
 24e:	0000                	unimp
 250:	1d6c                	addi	a1,sp,700
 252:	0000                	unimp
 254:	9c06                	add	s8,s8,ra
 256:	001d                	c.nop	7
 258:	c000                	sw	s0,0(s0)
 25a:	001d                	c.nop	7
 25c:	0000                	unimp
 25e:	4806                	lw	a6,64(sp)
 260:	001d                	c.nop	7
 262:	4c00                	lw	s0,24(s0)
 264:	001d                	c.nop	7
 266:	0600                	addi	s0,sp,768
 268:	1dac                	addi	a1,sp,760
 26a:	0000                	unimp
 26c:	1dc0                	addi	s0,sp,756
 26e:	0000                	unimp
 270:	0600                	addi	s0,sp,768
 272:	1d50                	addi	a2,sp,692
 274:	0000                	unimp
 276:	1d54                	addi	a3,sp,692
 278:	0000                	unimp
 27a:	9c06                	add	s8,s8,ra
 27c:	001d                	c.nop	7
 27e:	ac00                	fsd	fs0,24(s0)
 280:	001d                	c.nop	7
 282:	0000                	unimp
 284:	9406                	add	s0,s0,ra
 286:	001c                	0x1c
 288:	9800                	0x9800
 28a:	001c                	0x1c
 28c:	0600                	addi	s0,sp,768
 28e:	1d10                	addi	a2,sp,688
 290:	0000                	unimp
 292:	1d40                	addi	s0,sp,692
 294:	0000                	unimp
 296:	c006                	sw	ra,0(sp)
 298:	001d                	c.nop	7
 29a:	e400                	fsw	fs0,8(s0)
 29c:	001d                	c.nop	7
 29e:	0000                	unimp
 2a0:	1006                	c.slli	zero,0x21
 2a2:	001d                	c.nop	7
 2a4:	4000                	lw	s0,0(s0)
 2a6:	001d                	c.nop	7
 2a8:	0600                	addi	s0,sp,768
 2aa:	1dc0                	addi	s0,sp,756
 2ac:	0000                	unimp
 2ae:	1de4                	addi	s1,sp,764
 2b0:	0000                	unimp
 2b2:	0600                	addi	s0,sp,768
 2b4:	1d10                	addi	a2,sp,688
 2b6:	0000                	unimp
 2b8:	1d40                	addi	s0,sp,692
 2ba:	0000                	unimp
 2bc:	c006                	sw	ra,0(sp)
 2be:	001d                	c.nop	7
 2c0:	e400                	fsw	fs0,8(s0)
 2c2:	001d                	c.nop	7
 2c4:	0000                	unimp
 2c6:	1c06                	slli	s8,s8,0x21
 2c8:	001d                	c.nop	7
 2ca:	2000                	fld	fs0,0(s0)
 2cc:	001d                	c.nop	7
 2ce:	0600                	addi	s0,sp,768
 2d0:	1dd0                	addi	a2,sp,756
 2d2:	0000                	unimp
 2d4:	1de4                	addi	s1,sp,764
 2d6:	0000                	unimp
 2d8:	0600                	addi	s0,sp,768
 2da:	1d24                	addi	s1,sp,696
 2dc:	0000                	unimp
 2de:	1d28                	addi	a0,sp,696
 2e0:	0000                	unimp
 2e2:	c006                	sw	ra,0(sp)
 2e4:	001d                	c.nop	7
 2e6:	d000                	sw	s0,32(s0)
 2e8:	001d                	c.nop	7
 2ea:	0000                	unimp
 2ec:	0006                	c.slli	zero,0x1
 2ee:	001e                	c.slli	zero,0x7
 2f0:	0400                	addi	s0,sp,512
 2f2:	001e                	c.slli	zero,0x7
 2f4:	0600                	addi	s0,sp,768
 2f6:	1e08                	addi	a0,sp,816
 2f8:	0000                	unimp
 2fa:	1e0c                	addi	a1,sp,816
 2fc:	0000                	unimp
 2fe:	2406                	fld	fs0,64(sp)
 300:	001e                	c.slli	zero,0x7
 302:	4400                	lw	s0,8(s0)
 304:	001e                	c.slli	zero,0x7
 306:	0600                	addi	s0,sp,768
 308:	1e54                	addi	a3,sp,820
 30a:	0000                	unimp
 30c:	1e5c                	addi	a5,sp,820
 30e:	0000                	unimp
 310:	6406                	flw	fs0,64(sp)
 312:	001e                	c.slli	zero,0x7
 314:	6800                	flw	fs0,16(s0)
 316:	001e                	c.slli	zero,0x7
 318:	0600                	addi	s0,sp,768
 31a:	1e70                	addi	a2,sp,828
 31c:	0000                	unimp
 31e:	1f14                	addi	a3,sp,944
 320:	0000                	unimp
 322:	0600                	addi	s0,sp,768
 324:	1e34                	addi	a3,sp,824
 326:	0000                	unimp
 328:	1e38                	addi	a4,sp,824
 32a:	0000                	unimp
 32c:	7406                	flw	fs0,96(sp)
 32e:	001e                	c.slli	zero,0x7
 330:	9800                	0x9800
 332:	001e                	c.slli	zero,0x7
 334:	0600                	addi	s0,sp,768
 336:	1e9c                	addi	a5,sp,880
 338:	0000                	unimp
 33a:	1ea0                	addi	s0,sp,888
 33c:	0000                	unimp
 33e:	d406                	sw	ra,40(sp)
 340:	001e                	c.slli	zero,0x7
 342:	e000                	fsw	fs0,0(s0)
 344:	001e                	c.slli	zero,0x7
 346:	0600                	addi	s0,sp,768
 348:	1f04                	addi	s1,sp,944
 34a:	0000                	unimp
 34c:	1f14                	addi	a3,sp,944
 34e:	0000                	unimp
 350:	0600                	addi	s0,sp,768
 352:	1e74                	addi	a3,sp,828
 354:	0000                	unimp
 356:	1e98                	addi	a4,sp,880
 358:	0000                	unimp
 35a:	9c06                	add	s8,s8,ra
 35c:	001e                	c.slli	zero,0x7
 35e:	a000                	fsd	fs0,0(s0)
 360:	001e                	c.slli	zero,0x7
 362:	0600                	addi	s0,sp,768
 364:	1ed4                	addi	a3,sp,884
 366:	0000                	unimp
 368:	1ee0                	addi	s0,sp,892
 36a:	0000                	unimp
 36c:	0406                	slli	s0,s0,0x1
 36e:	001f 1400 001f      	0x1f1400001f
 374:	0000                	unimp
 376:	7406                	flw	fs0,96(sp)
 378:	001e                	c.slli	zero,0x7
 37a:	9800                	0x9800
 37c:	001e                	c.slli	zero,0x7
 37e:	0600                	addi	s0,sp,768
 380:	1e9c                	addi	a5,sp,880
 382:	0000                	unimp
 384:	1ea0                	addi	s0,sp,888
 386:	0000                	unimp
 388:	d406                	sw	ra,40(sp)
 38a:	001e                	c.slli	zero,0x7
 38c:	e000                	fsw	fs0,0(s0)
 38e:	001e                	c.slli	zero,0x7
 390:	0600                	addi	s0,sp,768
 392:	1f04                	addi	s1,sp,944
 394:	0000                	unimp
 396:	1f14                	addi	a3,sp,944
 398:	0000                	unimp
 39a:	0600                	addi	s0,sp,768
 39c:	1e7c                	addi	a5,sp,828
 39e:	0000                	unimp
 3a0:	1e80                	addi	s0,sp,880
 3a2:	0000                	unimp
 3a4:	d406                	sw	ra,40(sp)
 3a6:	001e                	c.slli	zero,0x7
 3a8:	e000                	fsw	fs0,0(s0)
 3aa:	001e                	c.slli	zero,0x7
 3ac:	0000                	unimp
 3ae:	8406                	mv	s0,ra
 3b0:	001e                	c.slli	zero,0x7
 3b2:	8800                	0x8800
 3b4:	001e                	c.slli	zero,0x7
 3b6:	0600                	addi	s0,sp,768
 3b8:	1f04                	addi	s1,sp,944
 3ba:	0000                	unimp
 3bc:	1f14                	addi	a3,sp,944
 3be:	0000                	unimp
 3c0:	0600                	addi	s0,sp,768
 3c2:	1e3c                	addi	a5,sp,824
 3c4:	0000                	unimp
 3c6:	1e40                	addi	s0,sp,820
 3c8:	0000                	unimp
 3ca:	a006                	fsd	ft1,0(sp)
 3cc:	001e                	c.slli	zero,0x7
 3ce:	d400                	sw	s0,40(s0)
 3d0:	001e                	c.slli	zero,0x7
 3d2:	0600                	addi	s0,sp,768
 3d4:	1ee0                	addi	s0,sp,892
 3d6:	0000                	unimp
 3d8:	1f04                	addi	s1,sp,944
 3da:	0000                	unimp
 3dc:	0600                	addi	s0,sp,768
 3de:	1ea4                	addi	s1,sp,888
 3e0:	0000                	unimp
 3e2:	1ed4                	addi	a3,sp,884
 3e4:	0000                	unimp
 3e6:	e006                	fsw	ft1,0(sp)
 3e8:	001e                	c.slli	zero,0x7
 3ea:	0400                	addi	s0,sp,512
 3ec:	001f 0000 b006      	0xb0060000001f
 3f2:	001e                	c.slli	zero,0x7
 3f4:	b400                	fsd	fs0,40(s0)
 3f6:	001e                	c.slli	zero,0x7
 3f8:	0600                	addi	s0,sp,768
 3fa:	1ef0                	addi	a2,sp,892
 3fc:	0000                	unimp
 3fe:	1f04                	addi	s1,sp,944
 400:	0000                	unimp
 402:	0600                	addi	s0,sp,768
 404:	1eb8                	addi	a4,sp,888
 406:	0000                	unimp
 408:	1ebc                	addi	a5,sp,888
 40a:	0000                	unimp
 40c:	e006                	fsw	ft1,0(sp)
 40e:	001e                	c.slli	zero,0x7
 410:	f000                	fsw	fs0,32(s0)
 412:	001e                	c.slli	zero,0x7
 414:	0000                	unimp
 416:	3806                	fld	fa6,96(sp)
 418:	001f 4400 001f      	0x1f4400001f
 41e:	0600                	addi	s0,sp,768
 420:	1f60                	addi	s0,sp,956
 422:	0000                	unimp
 424:	1f64                	addi	s1,sp,956
 426:	0000                	unimp
 428:	0600                	addi	s0,sp,768
 42a:	1a30                	addi	a2,sp,312
 42c:	0000                	unimp
 42e:	1f14                	addi	a3,sp,944
 430:	0000                	unimp
 432:	1406                	slli	s0,s0,0x21
 434:	001f 7400 001f      	0x1f7400001f
	...
