
code.elf:     file format elf32-littleriscv


Disassembly of section .text:

00001000 <_start>:
    1000:	0100006f          	j	1010 <_init>

00001004 <_end>:
    1004:	0000006f          	j	1004 <_end>

00001008 <_call_main>:
    1008:	70d000ef          	jal	ra,1f14 <main>
    100c:	ff9ff06f          	j	1004 <_end>

00001010 <_init>:
    1010:	00000517          	auipc	a0,0x0
    1014:	09850513          	addi	a0,a0,152 # 10a8 <trap_vector>
    1018:	30551073          	csrw	mtvec,a0
    101c:	80020137          	lui	sp,0x80020
    1020:	19d000ef          	jal	ra,19bc <_load>
    1024:	00000093          	li	ra,0
    1028:	00000113          	li	sp,0
    102c:	00000193          	li	gp,0
    1030:	00000213          	li	tp,0
    1034:	00000293          	li	t0,0
    1038:	00000313          	li	t1,0
    103c:	00000393          	li	t2,0
    1040:	00000413          	li	s0,0
    1044:	00000493          	li	s1,0
    1048:	00000513          	li	a0,0
    104c:	00000593          	li	a1,0
    1050:	00000613          	li	a2,0
    1054:	00000693          	li	a3,0
    1058:	00000713          	li	a4,0
    105c:	00000793          	li	a5,0
    1060:	00000813          	li	a6,0
    1064:	00000893          	li	a7,0
    1068:	00000913          	li	s2,0
    106c:	00000993          	li	s3,0
    1070:	00000a13          	li	s4,0
    1074:	00000a93          	li	s5,0
    1078:	00000b13          	li	s6,0
    107c:	00000b93          	li	s7,0
    1080:	00000c13          	li	s8,0
    1084:	00000c93          	li	s9,0
    1088:	00000d13          	li	s10,0
    108c:	00000d93          	li	s11,0
    1090:	00000e13          	li	t3,0
    1094:	00000e93          	li	t4,0
    1098:	00000f13          	li	t5,0
    109c:	00000f93          	li	t6,0
    10a0:	80020137          	lui	sp,0x80020
    10a4:	f65ff06f          	j	1008 <_call_main>

000010a8 <trap_vector>:
    10a8:	f8010113          	addi	sp,sp,-128 # 8001ff80 <stack_top+0xffffff80>
    10ac:	00012023          	sw	zero,0(sp)
    10b0:	00112223          	sw	ra,4(sp)
    10b4:	00212423          	sw	sp,8(sp)
    10b8:	00312623          	sw	gp,12(sp)
    10bc:	00412823          	sw	tp,16(sp)
    10c0:	00512a23          	sw	t0,20(sp)
    10c4:	00612c23          	sw	t1,24(sp)
    10c8:	00712e23          	sw	t2,28(sp)
    10cc:	02812023          	sw	s0,32(sp)
    10d0:	02912223          	sw	s1,36(sp)
    10d4:	02a12423          	sw	a0,40(sp)
    10d8:	02b12623          	sw	a1,44(sp)
    10dc:	02c12823          	sw	a2,48(sp)
    10e0:	02d12a23          	sw	a3,52(sp)
    10e4:	02e12c23          	sw	a4,56(sp)
    10e8:	02f12e23          	sw	a5,60(sp)
    10ec:	05012023          	sw	a6,64(sp)
    10f0:	05112223          	sw	a7,68(sp)
    10f4:	05212423          	sw	s2,72(sp)
    10f8:	05312623          	sw	s3,76(sp)
    10fc:	05412823          	sw	s4,80(sp)
    1100:	05512a23          	sw	s5,84(sp)
    1104:	05612c23          	sw	s6,88(sp)
    1108:	05712e23          	sw	s7,92(sp)
    110c:	07812023          	sw	s8,96(sp)
    1110:	07912223          	sw	s9,100(sp)
    1114:	07a12423          	sw	s10,104(sp)
    1118:	07b12623          	sw	s11,108(sp)
    111c:	07c12823          	sw	t3,112(sp)
    1120:	07d12a23          	sw	t4,116(sp)
    1124:	07e12c23          	sw	t5,120(sp)
    1128:	07f12e23          	sw	t6,124(sp)
    112c:	7ffff517          	auipc	a0,0x7ffff
    1130:	ed450513          	addi	a0,a0,-300 # 80000000 <__data_start>
    1134:	00050293          	mv	t0,a0
    1138:	40002337          	lui	t1,0x40002
    113c:	0002c503          	lbu	a0,0(t0)
    1140:	00128293          	addi	t0,t0,1
    1144:	00050663          	beqz	a0,1150 <trap_vector+0xa8>
    1148:	00a32023          	sw	a0,0(t1) # 40002000 <__rodata_end+0x40000074>
    114c:	ff1ff06f          	j	113c <trap_vector+0x94>
    1150:	7ffff517          	auipc	a0,0x7ffff
    1154:	ed050513          	addi	a0,a0,-304 # 80000020 <__data_start+0x20>
    1158:	00050293          	mv	t0,a0
    115c:	40002337          	lui	t1,0x40002
    1160:	0002c503          	lbu	a0,0(t0)
    1164:	00128293          	addi	t0,t0,1
    1168:	00050663          	beqz	a0,1174 <trap_vector+0xcc>
    116c:	00a32023          	sw	a0,0(t1) # 40002000 <__rodata_end+0x40000074>
    1170:	ff1ff06f          	j	1160 <trap_vector+0xb8>
    1174:	34202573          	csrr	a0,mcause
    1178:	7ffff297          	auipc	t0,0x7ffff
    117c:	eb828293          	addi	t0,t0,-328 # 80000030 <__data_start+0x30>
    1180:	0012a023          	sw	ra,0(t0)
    1184:	00a2a223          	sw	a0,4(t0)
    1188:	00b2a423          	sw	a1,8(t0)
    118c:	00050513          	mv	a0,a0
    1190:	00050593          	mv	a1,a0
    1194:	01855513          	srli	a0,a0,0x18
    1198:	00050513          	mv	a0,a0
    119c:	00050313          	mv	t1,a0
    11a0:	00435513          	srli	a0,t1,0x4
    11a4:	00f57513          	andi	a0,a0,15
    11a8:	7ffff297          	auipc	t0,0x7ffff
    11ac:	e9828293          	addi	t0,t0,-360 # 80000040 <__data_start+0x40>
    11b0:	00550533          	add	a0,a0,t0
    11b4:	00054503          	lbu	a0,0(a0)
    11b8:	400022b7          	lui	t0,0x40002
    11bc:	00a2a023          	sw	a0,0(t0) # 40002000 <__rodata_end+0x40000074>
    11c0:	00f37513          	andi	a0,t1,15
    11c4:	7ffff297          	auipc	t0,0x7ffff
    11c8:	e7c28293          	addi	t0,t0,-388 # 80000040 <__data_start+0x40>
    11cc:	00550533          	add	a0,a0,t0
    11d0:	00054503          	lbu	a0,0(a0)
    11d4:	400022b7          	lui	t0,0x40002
    11d8:	00a2a023          	sw	a0,0(t0) # 40002000 <__rodata_end+0x40000074>
    11dc:	00058513          	mv	a0,a1
    11e0:	01055513          	srli	a0,a0,0x10
    11e4:	00050513          	mv	a0,a0
    11e8:	00050313          	mv	t1,a0
    11ec:	00435513          	srli	a0,t1,0x4
    11f0:	00f57513          	andi	a0,a0,15
    11f4:	7ffff297          	auipc	t0,0x7ffff
    11f8:	e6c28293          	addi	t0,t0,-404 # 80000060 <__data_start+0x60>
    11fc:	00550533          	add	a0,a0,t0
    1200:	00054503          	lbu	a0,0(a0)
    1204:	400022b7          	lui	t0,0x40002
    1208:	00a2a023          	sw	a0,0(t0) # 40002000 <__rodata_end+0x40000074>
    120c:	00f37513          	andi	a0,t1,15
    1210:	7ffff297          	auipc	t0,0x7ffff
    1214:	e5028293          	addi	t0,t0,-432 # 80000060 <__data_start+0x60>
    1218:	00550533          	add	a0,a0,t0
    121c:	00054503          	lbu	a0,0(a0)
    1220:	400022b7          	lui	t0,0x40002
    1224:	00a2a023          	sw	a0,0(t0) # 40002000 <__rodata_end+0x40000074>
    1228:	00058513          	mv	a0,a1
    122c:	00855513          	srli	a0,a0,0x8
    1230:	00050513          	mv	a0,a0
    1234:	00050313          	mv	t1,a0
    1238:	00435513          	srli	a0,t1,0x4
    123c:	00f57513          	andi	a0,a0,15
    1240:	7ffff297          	auipc	t0,0x7ffff
    1244:	e4028293          	addi	t0,t0,-448 # 80000080 <__data_start+0x80>
    1248:	00550533          	add	a0,a0,t0
    124c:	00054503          	lbu	a0,0(a0)
    1250:	400022b7          	lui	t0,0x40002
    1254:	00a2a023          	sw	a0,0(t0) # 40002000 <__rodata_end+0x40000074>
    1258:	00f37513          	andi	a0,t1,15
    125c:	7ffff297          	auipc	t0,0x7ffff
    1260:	e2428293          	addi	t0,t0,-476 # 80000080 <__data_start+0x80>
    1264:	00550533          	add	a0,a0,t0
    1268:	00054503          	lbu	a0,0(a0)
    126c:	400022b7          	lui	t0,0x40002
    1270:	00a2a023          	sw	a0,0(t0) # 40002000 <__rodata_end+0x40000074>
    1274:	00058513          	mv	a0,a1
    1278:	00050513          	mv	a0,a0
    127c:	00050313          	mv	t1,a0
    1280:	00435513          	srli	a0,t1,0x4
    1284:	00f57513          	andi	a0,a0,15
    1288:	7ffff297          	auipc	t0,0x7ffff
    128c:	e1828293          	addi	t0,t0,-488 # 800000a0 <__data_start+0xa0>
    1290:	00550533          	add	a0,a0,t0
    1294:	00054503          	lbu	a0,0(a0)
    1298:	400022b7          	lui	t0,0x40002
    129c:	00a2a023          	sw	a0,0(t0) # 40002000 <__rodata_end+0x40000074>
    12a0:	00f37513          	andi	a0,t1,15
    12a4:	7ffff297          	auipc	t0,0x7ffff
    12a8:	dfc28293          	addi	t0,t0,-516 # 800000a0 <__data_start+0xa0>
    12ac:	00550533          	add	a0,a0,t0
    12b0:	00054503          	lbu	a0,0(a0)
    12b4:	400022b7          	lui	t0,0x40002
    12b8:	00a2a023          	sw	a0,0(t0) # 40002000 <__rodata_end+0x40000074>
    12bc:	7ffff297          	auipc	t0,0x7ffff
    12c0:	de428293          	addi	t0,t0,-540 # 800000a0 <__data_start+0xa0>
    12c4:	0002a083          	lw	ra,0(t0)
    12c8:	0042a503          	lw	a0,4(t0)
    12cc:	0082a583          	lw	a1,8(t0)
    12d0:	7ffff517          	auipc	a0,0x7ffff
    12d4:	df050513          	addi	a0,a0,-528 # 800000c0 <__data_start+0xc0>
    12d8:	00050293          	mv	t0,a0
    12dc:	40002337          	lui	t1,0x40002
    12e0:	0002c503          	lbu	a0,0(t0)
    12e4:	00128293          	addi	t0,t0,1
    12e8:	00050663          	beqz	a0,12f4 <trap_vector+0x24c>
    12ec:	00a32023          	sw	a0,0(t1) # 40002000 <__rodata_end+0x40000074>
    12f0:	ff1ff06f          	j	12e0 <trap_vector+0x238>
    12f4:	34102573          	csrr	a0,mepc
    12f8:	7ffff297          	auipc	t0,0x7ffff
    12fc:	dd828293          	addi	t0,t0,-552 # 800000d0 <__data_start+0xd0>
    1300:	0012a023          	sw	ra,0(t0)
    1304:	00a2a223          	sw	a0,4(t0)
    1308:	00b2a423          	sw	a1,8(t0)
    130c:	00050513          	mv	a0,a0
    1310:	00050593          	mv	a1,a0
    1314:	01855513          	srli	a0,a0,0x18
    1318:	00050513          	mv	a0,a0
    131c:	00050313          	mv	t1,a0
    1320:	00435513          	srli	a0,t1,0x4
    1324:	00f57513          	andi	a0,a0,15
    1328:	7ffff297          	auipc	t0,0x7ffff
    132c:	db828293          	addi	t0,t0,-584 # 800000e0 <__data_start+0xe0>
    1330:	00550533          	add	a0,a0,t0
    1334:	00054503          	lbu	a0,0(a0)
    1338:	400022b7          	lui	t0,0x40002
    133c:	00a2a023          	sw	a0,0(t0) # 40002000 <__rodata_end+0x40000074>
    1340:	00f37513          	andi	a0,t1,15
    1344:	7ffff297          	auipc	t0,0x7ffff
    1348:	d9c28293          	addi	t0,t0,-612 # 800000e0 <__data_start+0xe0>
    134c:	00550533          	add	a0,a0,t0
    1350:	00054503          	lbu	a0,0(a0)
    1354:	400022b7          	lui	t0,0x40002
    1358:	00a2a023          	sw	a0,0(t0) # 40002000 <__rodata_end+0x40000074>
    135c:	00058513          	mv	a0,a1
    1360:	01055513          	srli	a0,a0,0x10
    1364:	00050513          	mv	a0,a0
    1368:	00050313          	mv	t1,a0
    136c:	00435513          	srli	a0,t1,0x4
    1370:	00f57513          	andi	a0,a0,15
    1374:	7ffff297          	auipc	t0,0x7ffff
    1378:	d8c28293          	addi	t0,t0,-628 # 80000100 <__data_start+0x100>
    137c:	00550533          	add	a0,a0,t0
    1380:	00054503          	lbu	a0,0(a0)
    1384:	400022b7          	lui	t0,0x40002
    1388:	00a2a023          	sw	a0,0(t0) # 40002000 <__rodata_end+0x40000074>
    138c:	00f37513          	andi	a0,t1,15
    1390:	7ffff297          	auipc	t0,0x7ffff
    1394:	d7028293          	addi	t0,t0,-656 # 80000100 <__data_start+0x100>
    1398:	00550533          	add	a0,a0,t0
    139c:	00054503          	lbu	a0,0(a0)
    13a0:	400022b7          	lui	t0,0x40002
    13a4:	00a2a023          	sw	a0,0(t0) # 40002000 <__rodata_end+0x40000074>
    13a8:	00058513          	mv	a0,a1
    13ac:	00855513          	srli	a0,a0,0x8
    13b0:	00050513          	mv	a0,a0
    13b4:	00050313          	mv	t1,a0
    13b8:	00435513          	srli	a0,t1,0x4
    13bc:	00f57513          	andi	a0,a0,15
    13c0:	7ffff297          	auipc	t0,0x7ffff
    13c4:	d6028293          	addi	t0,t0,-672 # 80000120 <__data_start+0x120>
    13c8:	00550533          	add	a0,a0,t0
    13cc:	00054503          	lbu	a0,0(a0)
    13d0:	400022b7          	lui	t0,0x40002
    13d4:	00a2a023          	sw	a0,0(t0) # 40002000 <__rodata_end+0x40000074>
    13d8:	00f37513          	andi	a0,t1,15
    13dc:	7ffff297          	auipc	t0,0x7ffff
    13e0:	d4428293          	addi	t0,t0,-700 # 80000120 <__data_start+0x120>
    13e4:	00550533          	add	a0,a0,t0
    13e8:	00054503          	lbu	a0,0(a0)
    13ec:	400022b7          	lui	t0,0x40002
    13f0:	00a2a023          	sw	a0,0(t0) # 40002000 <__rodata_end+0x40000074>
    13f4:	00058513          	mv	a0,a1
    13f8:	00050513          	mv	a0,a0
    13fc:	00050313          	mv	t1,a0
    1400:	00435513          	srli	a0,t1,0x4
    1404:	00f57513          	andi	a0,a0,15
    1408:	7ffff297          	auipc	t0,0x7ffff
    140c:	d3828293          	addi	t0,t0,-712 # 80000140 <__data_start+0x140>
    1410:	00550533          	add	a0,a0,t0
    1414:	00054503          	lbu	a0,0(a0)
    1418:	400022b7          	lui	t0,0x40002
    141c:	00a2a023          	sw	a0,0(t0) # 40002000 <__rodata_end+0x40000074>
    1420:	00f37513          	andi	a0,t1,15
    1424:	7ffff297          	auipc	t0,0x7ffff
    1428:	d1c28293          	addi	t0,t0,-740 # 80000140 <__data_start+0x140>
    142c:	00550533          	add	a0,a0,t0
    1430:	00054503          	lbu	a0,0(a0)
    1434:	400022b7          	lui	t0,0x40002
    1438:	00a2a023          	sw	a0,0(t0) # 40002000 <__rodata_end+0x40000074>
    143c:	7ffff297          	auipc	t0,0x7ffff
    1440:	d0428293          	addi	t0,t0,-764 # 80000140 <__data_start+0x140>
    1444:	0002a083          	lw	ra,0(t0)
    1448:	0042a503          	lw	a0,4(t0)
    144c:	0082a583          	lw	a1,8(t0)
    1450:	7ffff517          	auipc	a0,0x7ffff
    1454:	d1050513          	addi	a0,a0,-752 # 80000160 <__data_start+0x160>
    1458:	00050293          	mv	t0,a0
    145c:	40002337          	lui	t1,0x40002
    1460:	0002c503          	lbu	a0,0(t0)
    1464:	00128293          	addi	t0,t0,1
    1468:	00050663          	beqz	a0,1474 <trap_vector+0x3cc>
    146c:	00a32023          	sw	a0,0(t1) # 40002000 <__rodata_end+0x40000074>
    1470:	ff1ff06f          	j	1460 <trap_vector+0x3b8>
    1474:	34302573          	csrr	a0,mtval
    1478:	7ffff297          	auipc	t0,0x7ffff
    147c:	cf828293          	addi	t0,t0,-776 # 80000170 <__data_start+0x170>
    1480:	0012a023          	sw	ra,0(t0)
    1484:	00a2a223          	sw	a0,4(t0)
    1488:	00b2a423          	sw	a1,8(t0)
    148c:	00050513          	mv	a0,a0
    1490:	00050593          	mv	a1,a0
    1494:	01855513          	srli	a0,a0,0x18
    1498:	00050513          	mv	a0,a0
    149c:	00050313          	mv	t1,a0
    14a0:	00435513          	srli	a0,t1,0x4
    14a4:	00f57513          	andi	a0,a0,15
    14a8:	7ffff297          	auipc	t0,0x7ffff
    14ac:	cd828293          	addi	t0,t0,-808 # 80000180 <__data_start+0x180>
    14b0:	00550533          	add	a0,a0,t0
    14b4:	00054503          	lbu	a0,0(a0)
    14b8:	400022b7          	lui	t0,0x40002
    14bc:	00a2a023          	sw	a0,0(t0) # 40002000 <__rodata_end+0x40000074>
    14c0:	00f37513          	andi	a0,t1,15
    14c4:	7ffff297          	auipc	t0,0x7ffff
    14c8:	cbc28293          	addi	t0,t0,-836 # 80000180 <__data_start+0x180>
    14cc:	00550533          	add	a0,a0,t0
    14d0:	00054503          	lbu	a0,0(a0)
    14d4:	400022b7          	lui	t0,0x40002
    14d8:	00a2a023          	sw	a0,0(t0) # 40002000 <__rodata_end+0x40000074>
    14dc:	00058513          	mv	a0,a1
    14e0:	01055513          	srli	a0,a0,0x10
    14e4:	00050513          	mv	a0,a0
    14e8:	00050313          	mv	t1,a0
    14ec:	00435513          	srli	a0,t1,0x4
    14f0:	00f57513          	andi	a0,a0,15
    14f4:	7ffff297          	auipc	t0,0x7ffff
    14f8:	cac28293          	addi	t0,t0,-852 # 800001a0 <__data_start+0x1a0>
    14fc:	00550533          	add	a0,a0,t0
    1500:	00054503          	lbu	a0,0(a0)
    1504:	400022b7          	lui	t0,0x40002
    1508:	00a2a023          	sw	a0,0(t0) # 40002000 <__rodata_end+0x40000074>
    150c:	00f37513          	andi	a0,t1,15
    1510:	7ffff297          	auipc	t0,0x7ffff
    1514:	c9028293          	addi	t0,t0,-880 # 800001a0 <__data_start+0x1a0>
    1518:	00550533          	add	a0,a0,t0
    151c:	00054503          	lbu	a0,0(a0)
    1520:	400022b7          	lui	t0,0x40002
    1524:	00a2a023          	sw	a0,0(t0) # 40002000 <__rodata_end+0x40000074>
    1528:	00058513          	mv	a0,a1
    152c:	00855513          	srli	a0,a0,0x8
    1530:	00050513          	mv	a0,a0
    1534:	00050313          	mv	t1,a0
    1538:	00435513          	srli	a0,t1,0x4
    153c:	00f57513          	andi	a0,a0,15
    1540:	7ffff297          	auipc	t0,0x7ffff
    1544:	c8028293          	addi	t0,t0,-896 # 800001c0 <__data_start+0x1c0>
    1548:	00550533          	add	a0,a0,t0
    154c:	00054503          	lbu	a0,0(a0)
    1550:	400022b7          	lui	t0,0x40002
    1554:	00a2a023          	sw	a0,0(t0) # 40002000 <__rodata_end+0x40000074>
    1558:	00f37513          	andi	a0,t1,15
    155c:	7ffff297          	auipc	t0,0x7ffff
    1560:	c6428293          	addi	t0,t0,-924 # 800001c0 <__data_start+0x1c0>
    1564:	00550533          	add	a0,a0,t0
    1568:	00054503          	lbu	a0,0(a0)
    156c:	400022b7          	lui	t0,0x40002
    1570:	00a2a023          	sw	a0,0(t0) # 40002000 <__rodata_end+0x40000074>
    1574:	00058513          	mv	a0,a1
    1578:	00050513          	mv	a0,a0
    157c:	00050313          	mv	t1,a0
    1580:	00435513          	srli	a0,t1,0x4
    1584:	00f57513          	andi	a0,a0,15
    1588:	7ffff297          	auipc	t0,0x7ffff
    158c:	c5828293          	addi	t0,t0,-936 # 800001e0 <__data_start+0x1e0>
    1590:	00550533          	add	a0,a0,t0
    1594:	00054503          	lbu	a0,0(a0)
    1598:	400022b7          	lui	t0,0x40002
    159c:	00a2a023          	sw	a0,0(t0) # 40002000 <__rodata_end+0x40000074>
    15a0:	00f37513          	andi	a0,t1,15
    15a4:	7ffff297          	auipc	t0,0x7ffff
    15a8:	c3c28293          	addi	t0,t0,-964 # 800001e0 <__data_start+0x1e0>
    15ac:	00550533          	add	a0,a0,t0
    15b0:	00054503          	lbu	a0,0(a0)
    15b4:	400022b7          	lui	t0,0x40002
    15b8:	00a2a023          	sw	a0,0(t0) # 40002000 <__rodata_end+0x40000074>
    15bc:	7ffff297          	auipc	t0,0x7ffff
    15c0:	c2428293          	addi	t0,t0,-988 # 800001e0 <__data_start+0x1e0>
    15c4:	0002a083          	lw	ra,0(t0)
    15c8:	0042a503          	lw	a0,4(t0)
    15cc:	0082a583          	lw	a1,8(t0)
    15d0:	7ffff517          	auipc	a0,0x7ffff
    15d4:	c3050513          	addi	a0,a0,-976 # 80000200 <__data_start+0x200>
    15d8:	00050293          	mv	t0,a0
    15dc:	40002337          	lui	t1,0x40002
    15e0:	0002c503          	lbu	a0,0(t0)
    15e4:	00128293          	addi	t0,t0,1
    15e8:	00050663          	beqz	a0,15f4 <trap_vector+0x54c>
    15ec:	00a32023          	sw	a0,0(t1) # 40002000 <__rodata_end+0x40000074>
    15f0:	ff1ff06f          	j	15e0 <trap_vector+0x538>
    15f4:	00000393          	li	t2,0
    15f8:	08000e13          	li	t3,128

000015fc <trap_dump_registers>:
    15fc:	0023d513          	srli	a0,t2,0x2
    1600:	7ffff297          	auipc	t0,0x7ffff
    1604:	c1028293          	addi	t0,t0,-1008 # 80000210 <__data_start+0x210>
    1608:	0012a023          	sw	ra,0(t0)
    160c:	00a2a223          	sw	a0,4(t0)
    1610:	00b2a423          	sw	a1,8(t0)
    1614:	00050513          	mv	a0,a0
    1618:	00050593          	mv	a1,a0
    161c:	01855513          	srli	a0,a0,0x18
    1620:	00050513          	mv	a0,a0
    1624:	00050313          	mv	t1,a0
    1628:	00435513          	srli	a0,t1,0x4
    162c:	00f57513          	andi	a0,a0,15
    1630:	7ffff297          	auipc	t0,0x7ffff
    1634:	bf028293          	addi	t0,t0,-1040 # 80000220 <__data_start+0x220>
    1638:	00550533          	add	a0,a0,t0
    163c:	00054503          	lbu	a0,0(a0)
    1640:	400022b7          	lui	t0,0x40002
    1644:	00a2a023          	sw	a0,0(t0) # 40002000 <__rodata_end+0x40000074>
    1648:	00f37513          	andi	a0,t1,15
    164c:	7ffff297          	auipc	t0,0x7ffff
    1650:	bd428293          	addi	t0,t0,-1068 # 80000220 <__data_start+0x220>
    1654:	00550533          	add	a0,a0,t0
    1658:	00054503          	lbu	a0,0(a0)
    165c:	400022b7          	lui	t0,0x40002
    1660:	00a2a023          	sw	a0,0(t0) # 40002000 <__rodata_end+0x40000074>
    1664:	00058513          	mv	a0,a1
    1668:	01055513          	srli	a0,a0,0x10
    166c:	00050513          	mv	a0,a0
    1670:	00050313          	mv	t1,a0
    1674:	00435513          	srli	a0,t1,0x4
    1678:	00f57513          	andi	a0,a0,15
    167c:	7ffff297          	auipc	t0,0x7ffff
    1680:	bc428293          	addi	t0,t0,-1084 # 80000240 <__data_start+0x240>
    1684:	00550533          	add	a0,a0,t0
    1688:	00054503          	lbu	a0,0(a0)
    168c:	400022b7          	lui	t0,0x40002
    1690:	00a2a023          	sw	a0,0(t0) # 40002000 <__rodata_end+0x40000074>
    1694:	00f37513          	andi	a0,t1,15
    1698:	7ffff297          	auipc	t0,0x7ffff
    169c:	ba828293          	addi	t0,t0,-1112 # 80000240 <__data_start+0x240>
    16a0:	00550533          	add	a0,a0,t0
    16a4:	00054503          	lbu	a0,0(a0)
    16a8:	400022b7          	lui	t0,0x40002
    16ac:	00a2a023          	sw	a0,0(t0) # 40002000 <__rodata_end+0x40000074>
    16b0:	00058513          	mv	a0,a1
    16b4:	00855513          	srli	a0,a0,0x8
    16b8:	00050513          	mv	a0,a0
    16bc:	00050313          	mv	t1,a0
    16c0:	00435513          	srli	a0,t1,0x4
    16c4:	00f57513          	andi	a0,a0,15
    16c8:	7ffff297          	auipc	t0,0x7ffff
    16cc:	b9828293          	addi	t0,t0,-1128 # 80000260 <__data_start+0x260>
    16d0:	00550533          	add	a0,a0,t0
    16d4:	00054503          	lbu	a0,0(a0)
    16d8:	400022b7          	lui	t0,0x40002
    16dc:	00a2a023          	sw	a0,0(t0) # 40002000 <__rodata_end+0x40000074>
    16e0:	00f37513          	andi	a0,t1,15
    16e4:	7ffff297          	auipc	t0,0x7ffff
    16e8:	b7c28293          	addi	t0,t0,-1156 # 80000260 <__data_start+0x260>
    16ec:	00550533          	add	a0,a0,t0
    16f0:	00054503          	lbu	a0,0(a0)
    16f4:	400022b7          	lui	t0,0x40002
    16f8:	00a2a023          	sw	a0,0(t0) # 40002000 <__rodata_end+0x40000074>
    16fc:	00058513          	mv	a0,a1
    1700:	00050513          	mv	a0,a0
    1704:	00050313          	mv	t1,a0
    1708:	00435513          	srli	a0,t1,0x4
    170c:	00f57513          	andi	a0,a0,15
    1710:	7ffff297          	auipc	t0,0x7ffff
    1714:	b7028293          	addi	t0,t0,-1168 # 80000280 <__data_start+0x280>
    1718:	00550533          	add	a0,a0,t0
    171c:	00054503          	lbu	a0,0(a0)
    1720:	400022b7          	lui	t0,0x40002
    1724:	00a2a023          	sw	a0,0(t0) # 40002000 <__rodata_end+0x40000074>
    1728:	00f37513          	andi	a0,t1,15
    172c:	7ffff297          	auipc	t0,0x7ffff
    1730:	b5428293          	addi	t0,t0,-1196 # 80000280 <__data_start+0x280>
    1734:	00550533          	add	a0,a0,t0
    1738:	00054503          	lbu	a0,0(a0)
    173c:	400022b7          	lui	t0,0x40002
    1740:	00a2a023          	sw	a0,0(t0) # 40002000 <__rodata_end+0x40000074>
    1744:	7ffff297          	auipc	t0,0x7ffff
    1748:	b3c28293          	addi	t0,t0,-1220 # 80000280 <__data_start+0x280>
    174c:	0002a083          	lw	ra,0(t0)
    1750:	0042a503          	lw	a0,4(t0)
    1754:	0082a583          	lw	a1,8(t0)
    1758:	7ffff517          	auipc	a0,0x7ffff
    175c:	b4850513          	addi	a0,a0,-1208 # 800002a0 <__data_start+0x2a0>
    1760:	00050293          	mv	t0,a0
    1764:	40002337          	lui	t1,0x40002
    1768:	0002c503          	lbu	a0,0(t0)
    176c:	00128293          	addi	t0,t0,1
    1770:	00050663          	beqz	a0,177c <trap_dump_registers+0x180>
    1774:	00a32023          	sw	a0,0(t1) # 40002000 <__rodata_end+0x40000074>
    1778:	ff1ff06f          	j	1768 <trap_dump_registers+0x16c>
    177c:	00238533          	add	a0,t2,sp
    1780:	00052503          	lw	a0,0(a0)
    1784:	7ffff297          	auipc	t0,0x7ffff
    1788:	b2c28293          	addi	t0,t0,-1236 # 800002b0 <__data_start+0x2b0>
    178c:	0012a023          	sw	ra,0(t0)
    1790:	00a2a223          	sw	a0,4(t0)
    1794:	00b2a423          	sw	a1,8(t0)
    1798:	00050513          	mv	a0,a0
    179c:	00050593          	mv	a1,a0
    17a0:	01855513          	srli	a0,a0,0x18
    17a4:	00050513          	mv	a0,a0
    17a8:	00050313          	mv	t1,a0
    17ac:	00435513          	srli	a0,t1,0x4
    17b0:	00f57513          	andi	a0,a0,15
    17b4:	7ffff297          	auipc	t0,0x7ffff
    17b8:	b0c28293          	addi	t0,t0,-1268 # 800002c0 <__data_start+0x2c0>
    17bc:	00550533          	add	a0,a0,t0
    17c0:	00054503          	lbu	a0,0(a0)
    17c4:	400022b7          	lui	t0,0x40002
    17c8:	00a2a023          	sw	a0,0(t0) # 40002000 <__rodata_end+0x40000074>
    17cc:	00f37513          	andi	a0,t1,15
    17d0:	7ffff297          	auipc	t0,0x7ffff
    17d4:	af028293          	addi	t0,t0,-1296 # 800002c0 <__data_start+0x2c0>
    17d8:	00550533          	add	a0,a0,t0
    17dc:	00054503          	lbu	a0,0(a0)
    17e0:	400022b7          	lui	t0,0x40002
    17e4:	00a2a023          	sw	a0,0(t0) # 40002000 <__rodata_end+0x40000074>
    17e8:	00058513          	mv	a0,a1
    17ec:	01055513          	srli	a0,a0,0x10
    17f0:	00050513          	mv	a0,a0
    17f4:	00050313          	mv	t1,a0
    17f8:	00435513          	srli	a0,t1,0x4
    17fc:	00f57513          	andi	a0,a0,15
    1800:	7ffff297          	auipc	t0,0x7ffff
    1804:	ae028293          	addi	t0,t0,-1312 # 800002e0 <__data_start+0x2e0>
    1808:	00550533          	add	a0,a0,t0
    180c:	00054503          	lbu	a0,0(a0)
    1810:	400022b7          	lui	t0,0x40002
    1814:	00a2a023          	sw	a0,0(t0) # 40002000 <__rodata_end+0x40000074>
    1818:	00f37513          	andi	a0,t1,15
    181c:	7ffff297          	auipc	t0,0x7ffff
    1820:	ac428293          	addi	t0,t0,-1340 # 800002e0 <__data_start+0x2e0>
    1824:	00550533          	add	a0,a0,t0
    1828:	00054503          	lbu	a0,0(a0)
    182c:	400022b7          	lui	t0,0x40002
    1830:	00a2a023          	sw	a0,0(t0) # 40002000 <__rodata_end+0x40000074>
    1834:	00058513          	mv	a0,a1
    1838:	00855513          	srli	a0,a0,0x8
    183c:	00050513          	mv	a0,a0
    1840:	00050313          	mv	t1,a0
    1844:	00435513          	srli	a0,t1,0x4
    1848:	00f57513          	andi	a0,a0,15
    184c:	7ffff297          	auipc	t0,0x7ffff
    1850:	ab428293          	addi	t0,t0,-1356 # 80000300 <__data_start+0x300>
    1854:	00550533          	add	a0,a0,t0
    1858:	00054503          	lbu	a0,0(a0)
    185c:	400022b7          	lui	t0,0x40002
    1860:	00a2a023          	sw	a0,0(t0) # 40002000 <__rodata_end+0x40000074>
    1864:	00f37513          	andi	a0,t1,15
    1868:	7ffff297          	auipc	t0,0x7ffff
    186c:	a9828293          	addi	t0,t0,-1384 # 80000300 <__data_start+0x300>
    1870:	00550533          	add	a0,a0,t0
    1874:	00054503          	lbu	a0,0(a0)
    1878:	400022b7          	lui	t0,0x40002
    187c:	00a2a023          	sw	a0,0(t0) # 40002000 <__rodata_end+0x40000074>
    1880:	00058513          	mv	a0,a1
    1884:	00050513          	mv	a0,a0
    1888:	00050313          	mv	t1,a0
    188c:	00435513          	srli	a0,t1,0x4
    1890:	00f57513          	andi	a0,a0,15
    1894:	7ffff297          	auipc	t0,0x7ffff
    1898:	a8c28293          	addi	t0,t0,-1396 # 80000320 <__data_start+0x320>
    189c:	00550533          	add	a0,a0,t0
    18a0:	00054503          	lbu	a0,0(a0)
    18a4:	400022b7          	lui	t0,0x40002
    18a8:	00a2a023          	sw	a0,0(t0) # 40002000 <__rodata_end+0x40000074>
    18ac:	00f37513          	andi	a0,t1,15
    18b0:	7ffff297          	auipc	t0,0x7ffff
    18b4:	a7028293          	addi	t0,t0,-1424 # 80000320 <__data_start+0x320>
    18b8:	00550533          	add	a0,a0,t0
    18bc:	00054503          	lbu	a0,0(a0)
    18c0:	400022b7          	lui	t0,0x40002
    18c4:	00a2a023          	sw	a0,0(t0) # 40002000 <__rodata_end+0x40000074>
    18c8:	7ffff297          	auipc	t0,0x7ffff
    18cc:	a5828293          	addi	t0,t0,-1448 # 80000320 <__data_start+0x320>
    18d0:	0002a083          	lw	ra,0(t0)
    18d4:	0042a503          	lw	a0,4(t0)
    18d8:	0082a583          	lw	a1,8(t0)
    18dc:	7ffff517          	auipc	a0,0x7ffff
    18e0:	a6450513          	addi	a0,a0,-1436 # 80000340 <__data_start+0x340>
    18e4:	00050293          	mv	t0,a0
    18e8:	40002337          	lui	t1,0x40002
    18ec:	0002c503          	lbu	a0,0(t0)
    18f0:	00128293          	addi	t0,t0,1
    18f4:	00050663          	beqz	a0,1900 <trap_dump_registers+0x304>
    18f8:	00a32023          	sw	a0,0(t1) # 40002000 <__rodata_end+0x40000074>
    18fc:	ff1ff06f          	j	18ec <trap_dump_registers+0x2f0>
    1900:	00438393          	addi	t2,t2,4
    1904:	cfc39ce3          	bne	t2,t3,15fc <trap_dump_registers>
    1908:	7ffff517          	auipc	a0,0x7ffff
    190c:	a4850513          	addi	a0,a0,-1464 # 80000350 <__data_start+0x350>
    1910:	00050293          	mv	t0,a0
    1914:	40002337          	lui	t1,0x40002
    1918:	0002c503          	lbu	a0,0(t0)
    191c:	00128293          	addi	t0,t0,1
    1920:	00050663          	beqz	a0,192c <abort>
    1924:	00a32023          	sw	a0,0(t1) # 40002000 <__rodata_end+0x40000074>
    1928:	ff1ff06f          	j	1918 <trap_dump_registers+0x31c>

0000192c <abort>:
    192c:	ed8ff06f          	j	1004 <_end>
    1930:	00012003          	lw	zero,0(sp)
    1934:	00412083          	lw	ra,4(sp)
    1938:	00812103          	lw	sp,8(sp)
    193c:	00c12183          	lw	gp,12(sp)
    1940:	01012203          	lw	tp,16(sp)
    1944:	01412283          	lw	t0,20(sp)
    1948:	01812303          	lw	t1,24(sp)
    194c:	01c12383          	lw	t2,28(sp)
    1950:	02012403          	lw	s0,32(sp)
    1954:	02412483          	lw	s1,36(sp)
    1958:	02812503          	lw	a0,40(sp)
    195c:	02c12583          	lw	a1,44(sp)
    1960:	03012603          	lw	a2,48(sp)
    1964:	03412683          	lw	a3,52(sp)
    1968:	03812703          	lw	a4,56(sp)
    196c:	03c12783          	lw	a5,60(sp)
    1970:	04012803          	lw	a6,64(sp)
    1974:	04412883          	lw	a7,68(sp)
    1978:	04812903          	lw	s2,72(sp)
    197c:	04c12983          	lw	s3,76(sp)
    1980:	05012a03          	lw	s4,80(sp)
    1984:	05412a83          	lw	s5,84(sp)
    1988:	05812b03          	lw	s6,88(sp)
    198c:	05c12b83          	lw	s7,92(sp)
    1990:	06012c03          	lw	s8,96(sp)
    1994:	06412c83          	lw	s9,100(sp)
    1998:	06812d03          	lw	s10,104(sp)
    199c:	06c12d83          	lw	s11,108(sp)
    19a0:	07012e03          	lw	t3,112(sp)
    19a4:	07412e83          	lw	t4,116(sp)
    19a8:	07812f03          	lw	t5,120(sp)
    19ac:	07c12f83          	lw	t6,124(sp)
    19b0:	08010113          	addi	sp,sp,128
    19b4:	30200073          	mret
    19b8:	0000                	unimp
	...

000019bc <_load>:
    19bc:	800006b7          	lui	a3,0x80000
    19c0:	800007b7          	lui	a5,0x80000
    19c4:	80000737          	lui	a4,0x80000
    19c8:	800005b7          	lui	a1,0x80000
    19cc:	37468693          	addi	a3,a3,884 # 80000374 <stack_top+0xfffe0374>
    19d0:	00078793          	mv	a5,a5
    19d4:	37470713          	addi	a4,a4,884 # 80000374 <stack_top+0xfffe0374>
    19d8:	37458593          	addi	a1,a1,884 # 80000374 <stack_top+0xfffe0374>
    19dc:	40f68533          	sub	a0,a3,a5
    19e0:	40e585b3          	sub	a1,a1,a4
    19e4:	02f68863          	beq	a3,a5,1a14 <_load+0x58>
    19e8:	000027b7          	lui	a5,0x2
    19ec:	f8c78693          	addi	a3,a5,-116 # 1f8c <__rodata_end>
    19f0:	80000837          	lui	a6,0x80000
    19f4:	f8c78793          	addi	a5,a5,-116
    19f8:	00d50533          	add	a0,a0,a3
    19fc:	40f80833          	sub	a6,a6,a5
    1a00:	0007c603          	lbu	a2,0(a5)
    1a04:	00f806b3          	add	a3,a6,a5
    1a08:	00178793          	addi	a5,a5,1
    1a0c:	00c68023          	sb	a2,0(a3)
    1a10:	fea798e3          	bne	a5,a0,1a00 <_load+0x44>
    1a14:	00058c63          	beqz	a1,1a2c <_load+0x70>
    1a18:	ffc5f793          	andi	a5,a1,-4
    1a1c:	00e787b3          	add	a5,a5,a4
    1a20:	00072023          	sw	zero,0(a4)
    1a24:	00470713          	addi	a4,a4,4
    1a28:	fef71ce3          	bne	a4,a5,1a20 <_load+0x64>
    1a2c:	00008067          	ret

00001a30 <merge>:
    1a30:	40b60eb3          	sub	t4,a2,a1
    1a34:	001e8f13          	addi	t5,t4,1
    1a38:	40c686b3          	sub	a3,a3,a2
    1a3c:	002f1793          	slli	a5,t5,0x2
    1a40:	ff010113          	addi	sp,sp,-16
    1a44:	00f78793          	addi	a5,a5,15
    1a48:	00269313          	slli	t1,a3,0x2
    1a4c:	00812623          	sw	s0,12(sp)
    1a50:	ff07f793          	andi	a5,a5,-16
    1a54:	01010413          	addi	s0,sp,16
    1a58:	00f30713          	addi	a4,t1,15
    1a5c:	40f10133          	sub	sp,sp,a5
    1a60:	ff077793          	andi	a5,a4,-16
    1a64:	00010f93          	mv	t6,sp
    1a68:	40f10133          	sub	sp,sp,a5
    1a6c:	00010e13          	mv	t3,sp
    1a70:	15e05063          	blez	t5,1bb0 <merge+0x180>
    1a74:	00259713          	slli	a4,a1,0x2
    1a78:	00450293          	addi	t0,a0,4
    1a7c:	00261893          	slli	a7,a2,0x2
    1a80:	00e507b3          	add	a5,a0,a4
    1a84:	000f8813          	mv	a6,t6
    1a88:	011282b3          	add	t0,t0,a7
    1a8c:	0007a883          	lw	a7,0(a5)
    1a90:	00478793          	addi	a5,a5,4
    1a94:	00480813          	addi	a6,a6,4 # 80000004 <stack_top+0xfffe0004>
    1a98:	ff182e23          	sw	a7,-4(a6)
    1a9c:	fe5798e3          	bne	a5,t0,1a8c <merge+0x5c>
    1aa0:	10d05e63          	blez	a3,1bbc <merge+0x18c>
    1aa4:	00160713          	addi	a4,a2,1
    1aa8:	00271713          	slli	a4,a4,0x2
    1aac:	00e50733          	add	a4,a0,a4
    1ab0:	000e0793          	mv	a5,t3
    1ab4:	01c30833          	add	a6,t1,t3
    1ab8:	00072603          	lw	a2,0(a4)
    1abc:	00478793          	addi	a5,a5,4
    1ac0:	00470713          	addi	a4,a4,4
    1ac4:	fec7ae23          	sw	a2,-4(a5)
    1ac8:	ff0798e3          	bne	a5,a6,1ab8 <merge+0x88>
    1acc:	0fe05463          	blez	t5,1bb4 <merge+0x184>
    1ad0:	00259893          	slli	a7,a1,0x2
    1ad4:	011508b3          	add	a7,a0,a7
    1ad8:	00000813          	li	a6,0
    1adc:	00000613          	li	a2,0
    1ae0:	01c0006f          	j	1afc <merge+0xcc>
    1ae4:	00180813          	addi	a6,a6,1
    1ae8:	00e8a023          	sw	a4,0(a7)
    1aec:	00158593          	addi	a1,a1,1
    1af0:	03e85e63          	bge	a6,t5,1b2c <merge+0xfc>
    1af4:	00488893          	addi	a7,a7,4
    1af8:	06d65863          	bge	a2,a3,1b68 <merge+0x138>
    1afc:	00281713          	slli	a4,a6,0x2
    1b00:	00261793          	slli	a5,a2,0x2
    1b04:	00ef8733          	add	a4,t6,a4
    1b08:	00fe07b3          	add	a5,t3,a5
    1b0c:	00072703          	lw	a4,0(a4)
    1b10:	0007a783          	lw	a5,0(a5)
    1b14:	fce7d8e3          	bge	a5,a4,1ae4 <merge+0xb4>
    1b18:	00078713          	mv	a4,a5
    1b1c:	00e8a023          	sw	a4,0(a7)
    1b20:	00160613          	addi	a2,a2,1
    1b24:	00158593          	addi	a1,a1,1
    1b28:	fde846e3          	blt	a6,t5,1af4 <merge+0xc4>
    1b2c:	02d65663          	bge	a2,a3,1b58 <merge+0x128>
    1b30:	00261793          	slli	a5,a2,0x2
    1b34:	00259593          	slli	a1,a1,0x2
    1b38:	00fe07b3          	add	a5,t3,a5
    1b3c:	00b50533          	add	a0,a0,a1
    1b40:	006e0e33          	add	t3,t3,t1
    1b44:	0007a703          	lw	a4,0(a5)
    1b48:	00478793          	addi	a5,a5,4
    1b4c:	00450513          	addi	a0,a0,4
    1b50:	fee52e23          	sw	a4,-4(a0)
    1b54:	fefe18e3          	bne	t3,a5,1b44 <merge+0x114>
    1b58:	ff040113          	addi	sp,s0,-16
    1b5c:	00c12403          	lw	s0,12(sp)
    1b60:	01010113          	addi	sp,sp,16
    1b64:	00008067          	ret
    1b68:	00259713          	slli	a4,a1,0x2
    1b6c:	00281893          	slli	a7,a6,0x2
    1b70:	00e507b3          	add	a5,a0,a4
    1b74:	011f88b3          	add	a7,t6,a7
    1b78:	00080713          	mv	a4,a6
    1b7c:	0008af83          	lw	t6,0(a7)
    1b80:	00070f13          	mv	t5,a4
    1b84:	00488893          	addi	a7,a7,4
    1b88:	01f7a023          	sw	t6,0(a5)
    1b8c:	00170713          	addi	a4,a4,1
    1b90:	00478793          	addi	a5,a5,4
    1b94:	ffdf44e3          	blt	t5,t4,1b7c <merge+0x14c>
    1b98:	00158593          	addi	a1,a1,1
    1b9c:	00000793          	li	a5,0
    1ba0:	010ec463          	blt	t4,a6,1ba8 <merge+0x178>
    1ba4:	410e87b3          	sub	a5,t4,a6
    1ba8:	00b785b3          	add	a1,a5,a1
    1bac:	f81ff06f          	j	1b2c <merge+0xfc>
    1bb0:	eed04ae3          	bgtz	a3,1aa4 <merge+0x74>
    1bb4:	00000613          	li	a2,0
    1bb8:	f75ff06f          	j	1b2c <merge+0xfc>
    1bbc:	00000613          	li	a2,0
    1bc0:	00000813          	li	a6,0
    1bc4:	fa9ff06f          	j	1b6c <merge+0x13c>

00001bc8 <mergeSort.part.0>:
    1bc8:	fd010113          	addi	sp,sp,-48
    1bcc:	40b607b3          	sub	a5,a2,a1
    1bd0:	03212023          	sw	s2,32(sp)
    1bd4:	4017d913          	srai	s2,a5,0x1
    1bd8:	02812423          	sw	s0,40(sp)
    1bdc:	02912223          	sw	s1,36(sp)
    1be0:	01312e23          	sw	s3,28(sp)
    1be4:	02112623          	sw	ra,44(sp)
    1be8:	01412c23          	sw	s4,24(sp)
    1bec:	01512a23          	sw	s5,20(sp)
    1bf0:	01612823          	sw	s6,16(sp)
    1bf4:	01712623          	sw	s7,12(sp)
    1bf8:	00b90933          	add	s2,s2,a1
    1bfc:	00058413          	mv	s0,a1
    1c00:	00060493          	mv	s1,a2
    1c04:	00050993          	mv	s3,a0
    1c08:	0525c463          	blt	a1,s2,1c50 <mergeSort.part.0+0x88>
    1c0c:	00190a13          	addi	s4,s2,1
    1c10:	069a4863          	blt	s4,s1,1c80 <mergeSort.part.0+0xb8>
    1c14:	00040593          	mv	a1,s0
    1c18:	02812403          	lw	s0,40(sp)
    1c1c:	02c12083          	lw	ra,44(sp)
    1c20:	01812a03          	lw	s4,24(sp)
    1c24:	01412a83          	lw	s5,20(sp)
    1c28:	01012b03          	lw	s6,16(sp)
    1c2c:	00c12b83          	lw	s7,12(sp)
    1c30:	00048693          	mv	a3,s1
    1c34:	00090613          	mv	a2,s2
    1c38:	02412483          	lw	s1,36(sp)
    1c3c:	02012903          	lw	s2,32(sp)
    1c40:	00098513          	mv	a0,s3
    1c44:	01c12983          	lw	s3,28(sp)
    1c48:	03010113          	addi	sp,sp,48
    1c4c:	de5ff06f          	j	1a30 <merge>
    1c50:	4027da93          	srai	s5,a5,0x2
    1c54:	00ba8ab3          	add	s5,s5,a1
    1c58:	0555cc63          	blt	a1,s5,1cb0 <mergeSort.part.0+0xe8>
    1c5c:	001a8a13          	addi	s4,s5,1
    1c60:	092a4063          	blt	s4,s2,1ce0 <mergeSort.part.0+0x118>
    1c64:	00090693          	mv	a3,s2
    1c68:	000a8613          	mv	a2,s5
    1c6c:	00040593          	mv	a1,s0
    1c70:	00098513          	mv	a0,s3
    1c74:	00190a13          	addi	s4,s2,1
    1c78:	db9ff0ef          	jal	ra,1a30 <merge>
    1c7c:	f89a5ce3          	bge	s4,s1,1c14 <mergeSort.part.0+0x4c>
    1c80:	414487b3          	sub	a5,s1,s4
    1c84:	4017da93          	srai	s5,a5,0x1
    1c88:	014a8ab3          	add	s5,s5,s4
    1c8c:	0b5a4a63          	blt	s4,s5,1d40 <mergeSort.part.0+0x178>
    1c90:	001a8b13          	addi	s6,s5,1
    1c94:	069b4e63          	blt	s6,s1,1d10 <mergeSort.part.0+0x148>
    1c98:	00048693          	mv	a3,s1
    1c9c:	000a8613          	mv	a2,s5
    1ca0:	000a0593          	mv	a1,s4
    1ca4:	00098513          	mv	a0,s3
    1ca8:	d89ff0ef          	jal	ra,1a30 <merge>
    1cac:	f69ff06f          	j	1c14 <mergeSort.part.0+0x4c>
    1cb0:	4037d793          	srai	a5,a5,0x3
    1cb4:	00b78a33          	add	s4,a5,a1
    1cb8:	0b45ca63          	blt	a1,s4,1d6c <mergeSort.part.0+0x1a4>
    1cbc:	001a0593          	addi	a1,s4,1
    1cc0:	1355c263          	blt	a1,s5,1de4 <mergeSort.part.0+0x21c>
    1cc4:	000a0613          	mv	a2,s4
    1cc8:	000a8693          	mv	a3,s5
    1ccc:	00040593          	mv	a1,s0
    1cd0:	00098513          	mv	a0,s3
    1cd4:	001a8a13          	addi	s4,s5,1
    1cd8:	d59ff0ef          	jal	ra,1a30 <merge>
    1cdc:	f92a54e3          	bge	s4,s2,1c64 <mergeSort.part.0+0x9c>
    1ce0:	41490b33          	sub	s6,s2,s4
    1ce4:	401b5b13          	srai	s6,s6,0x1
    1ce8:	014b0b33          	add	s6,s6,s4
    1cec:	096a4e63          	blt	s4,s6,1d88 <mergeSort.part.0+0x1c0>
    1cf0:	001b0593          	addi	a1,s6,1
    1cf4:	0925c263          	blt	a1,s2,1d78 <mergeSort.part.0+0x1b0>
    1cf8:	00090693          	mv	a3,s2
    1cfc:	000b0613          	mv	a2,s6
    1d00:	000a0593          	mv	a1,s4
    1d04:	00098513          	mv	a0,s3
    1d08:	d29ff0ef          	jal	ra,1a30 <merge>
    1d0c:	f59ff06f          	j	1c64 <mergeSort.part.0+0x9c>
    1d10:	41648bb3          	sub	s7,s1,s6
    1d14:	401bdb93          	srai	s7,s7,0x1
    1d18:	016b8bb3          	add	s7,s7,s6
    1d1c:	0b7b4a63          	blt	s6,s7,1dd0 <mergeSort.part.0+0x208>
    1d20:	001b8593          	addi	a1,s7,1
    1d24:	0895ce63          	blt	a1,s1,1dc0 <mergeSort.part.0+0x1f8>
    1d28:	00048693          	mv	a3,s1
    1d2c:	000b8613          	mv	a2,s7
    1d30:	000b0593          	mv	a1,s6
    1d34:	00098513          	mv	a0,s3
    1d38:	cf9ff0ef          	jal	ra,1a30 <merge>
    1d3c:	f5dff06f          	j	1c98 <mergeSort.part.0+0xd0>
    1d40:	4027d793          	srai	a5,a5,0x2
    1d44:	01478b33          	add	s6,a5,s4
    1d48:	076a4263          	blt	s4,s6,1dac <mergeSort.part.0+0x1e4>
    1d4c:	001b0593          	addi	a1,s6,1
    1d50:	0555c663          	blt	a1,s5,1d9c <mergeSort.part.0+0x1d4>
    1d54:	000a8693          	mv	a3,s5
    1d58:	000b0613          	mv	a2,s6
    1d5c:	000a0593          	mv	a1,s4
    1d60:	00098513          	mv	a0,s3
    1d64:	ccdff0ef          	jal	ra,1a30 <merge>
    1d68:	f29ff06f          	j	1c90 <mergeSort.part.0+0xc8>
    1d6c:	000a0613          	mv	a2,s4
    1d70:	e59ff0ef          	jal	ra,1bc8 <mergeSort.part.0>
    1d74:	f49ff06f          	j	1cbc <mergeSort.part.0+0xf4>
    1d78:	00090613          	mv	a2,s2
    1d7c:	00098513          	mv	a0,s3
    1d80:	e49ff0ef          	jal	ra,1bc8 <mergeSort.part.0>
    1d84:	f75ff06f          	j	1cf8 <mergeSort.part.0+0x130>
    1d88:	000b0613          	mv	a2,s6
    1d8c:	000a0593          	mv	a1,s4
    1d90:	00098513          	mv	a0,s3
    1d94:	e35ff0ef          	jal	ra,1bc8 <mergeSort.part.0>
    1d98:	f59ff06f          	j	1cf0 <mergeSort.part.0+0x128>
    1d9c:	000a8613          	mv	a2,s5
    1da0:	00098513          	mv	a0,s3
    1da4:	e25ff0ef          	jal	ra,1bc8 <mergeSort.part.0>
    1da8:	fadff06f          	j	1d54 <mergeSort.part.0+0x18c>
    1dac:	000b0613          	mv	a2,s6
    1db0:	000a0593          	mv	a1,s4
    1db4:	00098513          	mv	a0,s3
    1db8:	e11ff0ef          	jal	ra,1bc8 <mergeSort.part.0>
    1dbc:	f91ff06f          	j	1d4c <mergeSort.part.0+0x184>
    1dc0:	00048613          	mv	a2,s1
    1dc4:	00098513          	mv	a0,s3
    1dc8:	e01ff0ef          	jal	ra,1bc8 <mergeSort.part.0>
    1dcc:	f5dff06f          	j	1d28 <mergeSort.part.0+0x160>
    1dd0:	000b8613          	mv	a2,s7
    1dd4:	000b0593          	mv	a1,s6
    1dd8:	00098513          	mv	a0,s3
    1ddc:	dedff0ef          	jal	ra,1bc8 <mergeSort.part.0>
    1de0:	f41ff06f          	j	1d20 <mergeSort.part.0+0x158>
    1de4:	000a8613          	mv	a2,s5
    1de8:	00098513          	mv	a0,s3
    1dec:	dddff0ef          	jal	ra,1bc8 <mergeSort.part.0>
    1df0:	ed5ff06f          	j	1cc4 <mergeSort.part.0+0xfc>

00001df4 <mergeSort>:
    1df4:	00c5c463          	blt	a1,a2,1dfc <mergeSort+0x8>
    1df8:	00008067          	ret
    1dfc:	fe010113          	addi	sp,sp,-32
    1e00:	40b607b3          	sub	a5,a2,a1
    1e04:	01312623          	sw	s3,12(sp)
    1e08:	4017d993          	srai	s3,a5,0x1
    1e0c:	00812c23          	sw	s0,24(sp)
    1e10:	00912a23          	sw	s1,20(sp)
    1e14:	01212823          	sw	s2,16(sp)
    1e18:	00112e23          	sw	ra,28(sp)
    1e1c:	01412423          	sw	s4,8(sp)
    1e20:	01512223          	sw	s5,4(sp)
    1e24:	00b989b3          	add	s3,s3,a1
    1e28:	00058413          	mv	s0,a1
    1e2c:	00060493          	mv	s1,a2
    1e30:	00050913          	mv	s2,a0
    1e34:	0535c063          	blt	a1,s3,1e74 <mergeSort+0x80>
    1e38:	00198a13          	addi	s4,s3,1
    1e3c:	069a4463          	blt	s4,s1,1ea4 <mergeSort+0xb0>
    1e40:	00040593          	mv	a1,s0
    1e44:	01812403          	lw	s0,24(sp)
    1e48:	01c12083          	lw	ra,28(sp)
    1e4c:	00812a03          	lw	s4,8(sp)
    1e50:	00412a83          	lw	s5,4(sp)
    1e54:	00048693          	mv	a3,s1
    1e58:	00098613          	mv	a2,s3
    1e5c:	01412483          	lw	s1,20(sp)
    1e60:	00c12983          	lw	s3,12(sp)
    1e64:	00090513          	mv	a0,s2
    1e68:	01012903          	lw	s2,16(sp)
    1e6c:	02010113          	addi	sp,sp,32
    1e70:	bc1ff06f          	j	1a30 <merge>
    1e74:	4027d793          	srai	a5,a5,0x2
    1e78:	00b78a33          	add	s4,a5,a1
    1e7c:	0545cc63          	blt	a1,s4,1ed4 <mergeSort+0xe0>
    1e80:	001a0593          	addi	a1,s4,1
    1e84:	0935c063          	blt	a1,s3,1f04 <mergeSort+0x110>
    1e88:	000a0613          	mv	a2,s4
    1e8c:	00098693          	mv	a3,s3
    1e90:	00040593          	mv	a1,s0
    1e94:	00090513          	mv	a0,s2
    1e98:	00198a13          	addi	s4,s3,1
    1e9c:	b95ff0ef          	jal	ra,1a30 <merge>
    1ea0:	fa9a50e3          	bge	s4,s1,1e40 <mergeSort+0x4c>
    1ea4:	41448ab3          	sub	s5,s1,s4
    1ea8:	401ada93          	srai	s5,s5,0x1
    1eac:	014a8ab3          	add	s5,s5,s4
    1eb0:	055a4063          	blt	s4,s5,1ef0 <mergeSort+0xfc>
    1eb4:	001a8593          	addi	a1,s5,1
    1eb8:	0295c463          	blt	a1,s1,1ee0 <mergeSort+0xec>
    1ebc:	00048693          	mv	a3,s1
    1ec0:	000a8613          	mv	a2,s5
    1ec4:	000a0593          	mv	a1,s4
    1ec8:	00090513          	mv	a0,s2
    1ecc:	b65ff0ef          	jal	ra,1a30 <merge>
    1ed0:	f71ff06f          	j	1e40 <mergeSort+0x4c>
    1ed4:	000a0613          	mv	a2,s4
    1ed8:	cf1ff0ef          	jal	ra,1bc8 <mergeSort.part.0>
    1edc:	fa5ff06f          	j	1e80 <mergeSort+0x8c>
    1ee0:	00048613          	mv	a2,s1
    1ee4:	00090513          	mv	a0,s2
    1ee8:	ce1ff0ef          	jal	ra,1bc8 <mergeSort.part.0>
    1eec:	fd1ff06f          	j	1ebc <mergeSort+0xc8>
    1ef0:	000a8613          	mv	a2,s5
    1ef4:	000a0593          	mv	a1,s4
    1ef8:	00090513          	mv	a0,s2
    1efc:	ccdff0ef          	jal	ra,1bc8 <mergeSort.part.0>
    1f00:	fb5ff06f          	j	1eb4 <mergeSort+0xc0>
    1f04:	00098613          	mv	a2,s3
    1f08:	00090513          	mv	a0,s2
    1f0c:	cbdff0ef          	jal	ra,1bc8 <mergeSort.part.0>
    1f10:	f79ff06f          	j	1e88 <mergeSort+0x94>

Disassembly of section .text.startup:

00001f14 <main>:
    1f14:	000027b7          	lui	a5,0x2
    1f18:	f7478793          	addi	a5,a5,-140 # 1f74 <main+0x60>
    1f1c:	0007a303          	lw	t1,0(a5)
    1f20:	0047a883          	lw	a7,4(a5)
    1f24:	0087a803          	lw	a6,8(a5)
    1f28:	00c7a683          	lw	a3,12(a5)
    1f2c:	0107a703          	lw	a4,16(a5)
    1f30:	0147a783          	lw	a5,20(a5)
    1f34:	fd010113          	addi	sp,sp,-48
    1f38:	00810513          	addi	a0,sp,8
    1f3c:	00500613          	li	a2,5
    1f40:	00000593          	li	a1,0
    1f44:	02112623          	sw	ra,44(sp)
    1f48:	00612423          	sw	t1,8(sp)
    1f4c:	01112623          	sw	a7,12(sp)
    1f50:	01012823          	sw	a6,16(sp)
    1f54:	00d12a23          	sw	a3,20(sp)
    1f58:	00e12c23          	sw	a4,24(sp)
    1f5c:	00f12e23          	sw	a5,28(sp)
    1f60:	c69ff0ef          	jal	ra,1bc8 <mergeSort.part.0>
    1f64:	02c12083          	lw	ra,44(sp)
    1f68:	00000513          	li	a0,0
    1f6c:	03010113          	addi	sp,sp,48
    1f70:	00008067          	ret
