
code.elf:     file format elf32-littleriscv


Disassembly of section .text:

00001000 <_start>:
    1000:	0100006f          	j	1010 <_init>

00001004 <_end>:
    1004:	0000006f          	j	1004 <_end>

00001008 <_call_main>:
    1008:	261000ef          	jal	ra,1a68 <main>
    100c:	ff9ff06f          	j	1004 <_end>

00001010 <_init>:
    1010:	00000517          	auipc	a0,0x0
    1014:	09850513          	addi	a0,a0,152 # 10a8 <trap_vector>
    1018:	30551073          	csrw	mtvec,a0
    101c:	80020137          	lui	sp,0x80020
    1020:	19d000ef          	jal	ra,19bc <_load>
    1024:	00000093          	li	ra,0
    1028:	00000113          	li	sp,0
    102c:	00000193          	li	gp,0
    1030:	00000213          	li	tp,0
    1034:	00000293          	li	t0,0
    1038:	00000313          	li	t1,0
    103c:	00000393          	li	t2,0
    1040:	00000413          	li	s0,0
    1044:	00000493          	li	s1,0
    1048:	00000513          	li	a0,0
    104c:	00000593          	li	a1,0
    1050:	00000613          	li	a2,0
    1054:	00000693          	li	a3,0
    1058:	00000713          	li	a4,0
    105c:	00000793          	li	a5,0
    1060:	00000813          	li	a6,0
    1064:	00000893          	li	a7,0
    1068:	00000913          	li	s2,0
    106c:	00000993          	li	s3,0
    1070:	00000a13          	li	s4,0
    1074:	00000a93          	li	s5,0
    1078:	00000b13          	li	s6,0
    107c:	00000b93          	li	s7,0
    1080:	00000c13          	li	s8,0
    1084:	00000c93          	li	s9,0
    1088:	00000d13          	li	s10,0
    108c:	00000d93          	li	s11,0
    1090:	00000e13          	li	t3,0
    1094:	00000e93          	li	t4,0
    1098:	00000f13          	li	t5,0
    109c:	00000f93          	li	t6,0
    10a0:	80020137          	lui	sp,0x80020
    10a4:	f65ff06f          	j	1008 <_call_main>

000010a8 <trap_vector>:
    10a8:	f8010113          	addi	sp,sp,-128 # 8001ff80 <stack_top+0xffffff80>
    10ac:	00012023          	sw	zero,0(sp)
    10b0:	00112223          	sw	ra,4(sp)
    10b4:	00212423          	sw	sp,8(sp)
    10b8:	00312623          	sw	gp,12(sp)
    10bc:	00412823          	sw	tp,16(sp)
    10c0:	00512a23          	sw	t0,20(sp)
    10c4:	00612c23          	sw	t1,24(sp)
    10c8:	00712e23          	sw	t2,28(sp)
    10cc:	02812023          	sw	s0,32(sp)
    10d0:	02912223          	sw	s1,36(sp)
    10d4:	02a12423          	sw	a0,40(sp)
    10d8:	02b12623          	sw	a1,44(sp)
    10dc:	02c12823          	sw	a2,48(sp)
    10e0:	02d12a23          	sw	a3,52(sp)
    10e4:	02e12c23          	sw	a4,56(sp)
    10e8:	02f12e23          	sw	a5,60(sp)
    10ec:	05012023          	sw	a6,64(sp)
    10f0:	05112223          	sw	a7,68(sp)
    10f4:	05212423          	sw	s2,72(sp)
    10f8:	05312623          	sw	s3,76(sp)
    10fc:	05412823          	sw	s4,80(sp)
    1100:	05512a23          	sw	s5,84(sp)
    1104:	05612c23          	sw	s6,88(sp)
    1108:	05712e23          	sw	s7,92(sp)
    110c:	07812023          	sw	s8,96(sp)
    1110:	07912223          	sw	s9,100(sp)
    1114:	07a12423          	sw	s10,104(sp)
    1118:	07b12623          	sw	s11,108(sp)
    111c:	07c12823          	sw	t3,112(sp)
    1120:	07d12a23          	sw	t4,116(sp)
    1124:	07e12c23          	sw	t5,120(sp)
    1128:	07f12e23          	sw	t6,124(sp)
    112c:	7ffff517          	auipc	a0,0x7ffff
    1130:	ed450513          	addi	a0,a0,-300 # 80000000 <__data_start>
    1134:	00050293          	mv	t0,a0
    1138:	40002337          	lui	t1,0x40002
    113c:	0002c503          	lbu	a0,0(t0)
    1140:	00128293          	addi	t0,t0,1
    1144:	00050663          	beqz	a0,1150 <trap_vector+0xa8>
    1148:	00a32023          	sw	a0,0(t1) # 40002000 <__rodata_end+0x4000056c>
    114c:	ff1ff06f          	j	113c <trap_vector+0x94>
    1150:	7ffff517          	auipc	a0,0x7ffff
    1154:	ed050513          	addi	a0,a0,-304 # 80000020 <__data_start+0x20>
    1158:	00050293          	mv	t0,a0
    115c:	40002337          	lui	t1,0x40002
    1160:	0002c503          	lbu	a0,0(t0)
    1164:	00128293          	addi	t0,t0,1
    1168:	00050663          	beqz	a0,1174 <trap_vector+0xcc>
    116c:	00a32023          	sw	a0,0(t1) # 40002000 <__rodata_end+0x4000056c>
    1170:	ff1ff06f          	j	1160 <trap_vector+0xb8>
    1174:	34202573          	csrr	a0,mcause
    1178:	7ffff297          	auipc	t0,0x7ffff
    117c:	eb828293          	addi	t0,t0,-328 # 80000030 <__data_start+0x30>
    1180:	0012a023          	sw	ra,0(t0)
    1184:	00a2a223          	sw	a0,4(t0)
    1188:	00b2a423          	sw	a1,8(t0)
    118c:	00050513          	mv	a0,a0
    1190:	00050593          	mv	a1,a0
    1194:	01855513          	srli	a0,a0,0x18
    1198:	00050513          	mv	a0,a0
    119c:	00050313          	mv	t1,a0
    11a0:	00435513          	srli	a0,t1,0x4
    11a4:	00f57513          	andi	a0,a0,15
    11a8:	7ffff297          	auipc	t0,0x7ffff
    11ac:	e9828293          	addi	t0,t0,-360 # 80000040 <__data_start+0x40>
    11b0:	00550533          	add	a0,a0,t0
    11b4:	00054503          	lbu	a0,0(a0)
    11b8:	400022b7          	lui	t0,0x40002
    11bc:	00a2a023          	sw	a0,0(t0) # 40002000 <__rodata_end+0x4000056c>
    11c0:	00f37513          	andi	a0,t1,15
    11c4:	7ffff297          	auipc	t0,0x7ffff
    11c8:	e7c28293          	addi	t0,t0,-388 # 80000040 <__data_start+0x40>
    11cc:	00550533          	add	a0,a0,t0
    11d0:	00054503          	lbu	a0,0(a0)
    11d4:	400022b7          	lui	t0,0x40002
    11d8:	00a2a023          	sw	a0,0(t0) # 40002000 <__rodata_end+0x4000056c>
    11dc:	00058513          	mv	a0,a1
    11e0:	01055513          	srli	a0,a0,0x10
    11e4:	00050513          	mv	a0,a0
    11e8:	00050313          	mv	t1,a0
    11ec:	00435513          	srli	a0,t1,0x4
    11f0:	00f57513          	andi	a0,a0,15
    11f4:	7ffff297          	auipc	t0,0x7ffff
    11f8:	e6c28293          	addi	t0,t0,-404 # 80000060 <__data_start+0x60>
    11fc:	00550533          	add	a0,a0,t0
    1200:	00054503          	lbu	a0,0(a0)
    1204:	400022b7          	lui	t0,0x40002
    1208:	00a2a023          	sw	a0,0(t0) # 40002000 <__rodata_end+0x4000056c>
    120c:	00f37513          	andi	a0,t1,15
    1210:	7ffff297          	auipc	t0,0x7ffff
    1214:	e5028293          	addi	t0,t0,-432 # 80000060 <__data_start+0x60>
    1218:	00550533          	add	a0,a0,t0
    121c:	00054503          	lbu	a0,0(a0)
    1220:	400022b7          	lui	t0,0x40002
    1224:	00a2a023          	sw	a0,0(t0) # 40002000 <__rodata_end+0x4000056c>
    1228:	00058513          	mv	a0,a1
    122c:	00855513          	srli	a0,a0,0x8
    1230:	00050513          	mv	a0,a0
    1234:	00050313          	mv	t1,a0
    1238:	00435513          	srli	a0,t1,0x4
    123c:	00f57513          	andi	a0,a0,15
    1240:	7ffff297          	auipc	t0,0x7ffff
    1244:	e4028293          	addi	t0,t0,-448 # 80000080 <__data_start+0x80>
    1248:	00550533          	add	a0,a0,t0
    124c:	00054503          	lbu	a0,0(a0)
    1250:	400022b7          	lui	t0,0x40002
    1254:	00a2a023          	sw	a0,0(t0) # 40002000 <__rodata_end+0x4000056c>
    1258:	00f37513          	andi	a0,t1,15
    125c:	7ffff297          	auipc	t0,0x7ffff
    1260:	e2428293          	addi	t0,t0,-476 # 80000080 <__data_start+0x80>
    1264:	00550533          	add	a0,a0,t0
    1268:	00054503          	lbu	a0,0(a0)
    126c:	400022b7          	lui	t0,0x40002
    1270:	00a2a023          	sw	a0,0(t0) # 40002000 <__rodata_end+0x4000056c>
    1274:	00058513          	mv	a0,a1
    1278:	00050513          	mv	a0,a0
    127c:	00050313          	mv	t1,a0
    1280:	00435513          	srli	a0,t1,0x4
    1284:	00f57513          	andi	a0,a0,15
    1288:	7ffff297          	auipc	t0,0x7ffff
    128c:	e1828293          	addi	t0,t0,-488 # 800000a0 <__data_start+0xa0>
    1290:	00550533          	add	a0,a0,t0
    1294:	00054503          	lbu	a0,0(a0)
    1298:	400022b7          	lui	t0,0x40002
    129c:	00a2a023          	sw	a0,0(t0) # 40002000 <__rodata_end+0x4000056c>
    12a0:	00f37513          	andi	a0,t1,15
    12a4:	7ffff297          	auipc	t0,0x7ffff
    12a8:	dfc28293          	addi	t0,t0,-516 # 800000a0 <__data_start+0xa0>
    12ac:	00550533          	add	a0,a0,t0
    12b0:	00054503          	lbu	a0,0(a0)
    12b4:	400022b7          	lui	t0,0x40002
    12b8:	00a2a023          	sw	a0,0(t0) # 40002000 <__rodata_end+0x4000056c>
    12bc:	7ffff297          	auipc	t0,0x7ffff
    12c0:	de428293          	addi	t0,t0,-540 # 800000a0 <__data_start+0xa0>
    12c4:	0002a083          	lw	ra,0(t0)
    12c8:	0042a503          	lw	a0,4(t0)
    12cc:	0082a583          	lw	a1,8(t0)
    12d0:	7ffff517          	auipc	a0,0x7ffff
    12d4:	df050513          	addi	a0,a0,-528 # 800000c0 <__data_start+0xc0>
    12d8:	00050293          	mv	t0,a0
    12dc:	40002337          	lui	t1,0x40002
    12e0:	0002c503          	lbu	a0,0(t0)
    12e4:	00128293          	addi	t0,t0,1
    12e8:	00050663          	beqz	a0,12f4 <trap_vector+0x24c>
    12ec:	00a32023          	sw	a0,0(t1) # 40002000 <__rodata_end+0x4000056c>
    12f0:	ff1ff06f          	j	12e0 <trap_vector+0x238>
    12f4:	34102573          	csrr	a0,mepc
    12f8:	7ffff297          	auipc	t0,0x7ffff
    12fc:	dd828293          	addi	t0,t0,-552 # 800000d0 <__data_start+0xd0>
    1300:	0012a023          	sw	ra,0(t0)
    1304:	00a2a223          	sw	a0,4(t0)
    1308:	00b2a423          	sw	a1,8(t0)
    130c:	00050513          	mv	a0,a0
    1310:	00050593          	mv	a1,a0
    1314:	01855513          	srli	a0,a0,0x18
    1318:	00050513          	mv	a0,a0
    131c:	00050313          	mv	t1,a0
    1320:	00435513          	srli	a0,t1,0x4
    1324:	00f57513          	andi	a0,a0,15
    1328:	7ffff297          	auipc	t0,0x7ffff
    132c:	db828293          	addi	t0,t0,-584 # 800000e0 <__data_start+0xe0>
    1330:	00550533          	add	a0,a0,t0
    1334:	00054503          	lbu	a0,0(a0)
    1338:	400022b7          	lui	t0,0x40002
    133c:	00a2a023          	sw	a0,0(t0) # 40002000 <__rodata_end+0x4000056c>
    1340:	00f37513          	andi	a0,t1,15
    1344:	7ffff297          	auipc	t0,0x7ffff
    1348:	d9c28293          	addi	t0,t0,-612 # 800000e0 <__data_start+0xe0>
    134c:	00550533          	add	a0,a0,t0
    1350:	00054503          	lbu	a0,0(a0)
    1354:	400022b7          	lui	t0,0x40002
    1358:	00a2a023          	sw	a0,0(t0) # 40002000 <__rodata_end+0x4000056c>
    135c:	00058513          	mv	a0,a1
    1360:	01055513          	srli	a0,a0,0x10
    1364:	00050513          	mv	a0,a0
    1368:	00050313          	mv	t1,a0
    136c:	00435513          	srli	a0,t1,0x4
    1370:	00f57513          	andi	a0,a0,15
    1374:	7ffff297          	auipc	t0,0x7ffff
    1378:	d8c28293          	addi	t0,t0,-628 # 80000100 <__data_start+0x100>
    137c:	00550533          	add	a0,a0,t0
    1380:	00054503          	lbu	a0,0(a0)
    1384:	400022b7          	lui	t0,0x40002
    1388:	00a2a023          	sw	a0,0(t0) # 40002000 <__rodata_end+0x4000056c>
    138c:	00f37513          	andi	a0,t1,15
    1390:	7ffff297          	auipc	t0,0x7ffff
    1394:	d7028293          	addi	t0,t0,-656 # 80000100 <__data_start+0x100>
    1398:	00550533          	add	a0,a0,t0
    139c:	00054503          	lbu	a0,0(a0)
    13a0:	400022b7          	lui	t0,0x40002
    13a4:	00a2a023          	sw	a0,0(t0) # 40002000 <__rodata_end+0x4000056c>
    13a8:	00058513          	mv	a0,a1
    13ac:	00855513          	srli	a0,a0,0x8
    13b0:	00050513          	mv	a0,a0
    13b4:	00050313          	mv	t1,a0
    13b8:	00435513          	srli	a0,t1,0x4
    13bc:	00f57513          	andi	a0,a0,15
    13c0:	7ffff297          	auipc	t0,0x7ffff
    13c4:	d6028293          	addi	t0,t0,-672 # 80000120 <__data_start+0x120>
    13c8:	00550533          	add	a0,a0,t0
    13cc:	00054503          	lbu	a0,0(a0)
    13d0:	400022b7          	lui	t0,0x40002
    13d4:	00a2a023          	sw	a0,0(t0) # 40002000 <__rodata_end+0x4000056c>
    13d8:	00f37513          	andi	a0,t1,15
    13dc:	7ffff297          	auipc	t0,0x7ffff
    13e0:	d4428293          	addi	t0,t0,-700 # 80000120 <__data_start+0x120>
    13e4:	00550533          	add	a0,a0,t0
    13e8:	00054503          	lbu	a0,0(a0)
    13ec:	400022b7          	lui	t0,0x40002
    13f0:	00a2a023          	sw	a0,0(t0) # 40002000 <__rodata_end+0x4000056c>
    13f4:	00058513          	mv	a0,a1
    13f8:	00050513          	mv	a0,a0
    13fc:	00050313          	mv	t1,a0
    1400:	00435513          	srli	a0,t1,0x4
    1404:	00f57513          	andi	a0,a0,15
    1408:	7ffff297          	auipc	t0,0x7ffff
    140c:	d3828293          	addi	t0,t0,-712 # 80000140 <__data_start+0x140>
    1410:	00550533          	add	a0,a0,t0
    1414:	00054503          	lbu	a0,0(a0)
    1418:	400022b7          	lui	t0,0x40002
    141c:	00a2a023          	sw	a0,0(t0) # 40002000 <__rodata_end+0x4000056c>
    1420:	00f37513          	andi	a0,t1,15
    1424:	7ffff297          	auipc	t0,0x7ffff
    1428:	d1c28293          	addi	t0,t0,-740 # 80000140 <__data_start+0x140>
    142c:	00550533          	add	a0,a0,t0
    1430:	00054503          	lbu	a0,0(a0)
    1434:	400022b7          	lui	t0,0x40002
    1438:	00a2a023          	sw	a0,0(t0) # 40002000 <__rodata_end+0x4000056c>
    143c:	7ffff297          	auipc	t0,0x7ffff
    1440:	d0428293          	addi	t0,t0,-764 # 80000140 <__data_start+0x140>
    1444:	0002a083          	lw	ra,0(t0)
    1448:	0042a503          	lw	a0,4(t0)
    144c:	0082a583          	lw	a1,8(t0)
    1450:	7ffff517          	auipc	a0,0x7ffff
    1454:	d1050513          	addi	a0,a0,-752 # 80000160 <__data_start+0x160>
    1458:	00050293          	mv	t0,a0
    145c:	40002337          	lui	t1,0x40002
    1460:	0002c503          	lbu	a0,0(t0)
    1464:	00128293          	addi	t0,t0,1
    1468:	00050663          	beqz	a0,1474 <trap_vector+0x3cc>
    146c:	00a32023          	sw	a0,0(t1) # 40002000 <__rodata_end+0x4000056c>
    1470:	ff1ff06f          	j	1460 <trap_vector+0x3b8>
    1474:	34302573          	csrr	a0,mtval
    1478:	7ffff297          	auipc	t0,0x7ffff
    147c:	cf828293          	addi	t0,t0,-776 # 80000170 <__data_start+0x170>
    1480:	0012a023          	sw	ra,0(t0)
    1484:	00a2a223          	sw	a0,4(t0)
    1488:	00b2a423          	sw	a1,8(t0)
    148c:	00050513          	mv	a0,a0
    1490:	00050593          	mv	a1,a0
    1494:	01855513          	srli	a0,a0,0x18
    1498:	00050513          	mv	a0,a0
    149c:	00050313          	mv	t1,a0
    14a0:	00435513          	srli	a0,t1,0x4
    14a4:	00f57513          	andi	a0,a0,15
    14a8:	7ffff297          	auipc	t0,0x7ffff
    14ac:	cd828293          	addi	t0,t0,-808 # 80000180 <__data_start+0x180>
    14b0:	00550533          	add	a0,a0,t0
    14b4:	00054503          	lbu	a0,0(a0)
    14b8:	400022b7          	lui	t0,0x40002
    14bc:	00a2a023          	sw	a0,0(t0) # 40002000 <__rodata_end+0x4000056c>
    14c0:	00f37513          	andi	a0,t1,15
    14c4:	7ffff297          	auipc	t0,0x7ffff
    14c8:	cbc28293          	addi	t0,t0,-836 # 80000180 <__data_start+0x180>
    14cc:	00550533          	add	a0,a0,t0
    14d0:	00054503          	lbu	a0,0(a0)
    14d4:	400022b7          	lui	t0,0x40002
    14d8:	00a2a023          	sw	a0,0(t0) # 40002000 <__rodata_end+0x4000056c>
    14dc:	00058513          	mv	a0,a1
    14e0:	01055513          	srli	a0,a0,0x10
    14e4:	00050513          	mv	a0,a0
    14e8:	00050313          	mv	t1,a0
    14ec:	00435513          	srli	a0,t1,0x4
    14f0:	00f57513          	andi	a0,a0,15
    14f4:	7ffff297          	auipc	t0,0x7ffff
    14f8:	cac28293          	addi	t0,t0,-852 # 800001a0 <__data_start+0x1a0>
    14fc:	00550533          	add	a0,a0,t0
    1500:	00054503          	lbu	a0,0(a0)
    1504:	400022b7          	lui	t0,0x40002
    1508:	00a2a023          	sw	a0,0(t0) # 40002000 <__rodata_end+0x4000056c>
    150c:	00f37513          	andi	a0,t1,15
    1510:	7ffff297          	auipc	t0,0x7ffff
    1514:	c9028293          	addi	t0,t0,-880 # 800001a0 <__data_start+0x1a0>
    1518:	00550533          	add	a0,a0,t0
    151c:	00054503          	lbu	a0,0(a0)
    1520:	400022b7          	lui	t0,0x40002
    1524:	00a2a023          	sw	a0,0(t0) # 40002000 <__rodata_end+0x4000056c>
    1528:	00058513          	mv	a0,a1
    152c:	00855513          	srli	a0,a0,0x8
    1530:	00050513          	mv	a0,a0
    1534:	00050313          	mv	t1,a0
    1538:	00435513          	srli	a0,t1,0x4
    153c:	00f57513          	andi	a0,a0,15
    1540:	7ffff297          	auipc	t0,0x7ffff
    1544:	c8028293          	addi	t0,t0,-896 # 800001c0 <__data_start+0x1c0>
    1548:	00550533          	add	a0,a0,t0
    154c:	00054503          	lbu	a0,0(a0)
    1550:	400022b7          	lui	t0,0x40002
    1554:	00a2a023          	sw	a0,0(t0) # 40002000 <__rodata_end+0x4000056c>
    1558:	00f37513          	andi	a0,t1,15
    155c:	7ffff297          	auipc	t0,0x7ffff
    1560:	c6428293          	addi	t0,t0,-924 # 800001c0 <__data_start+0x1c0>
    1564:	00550533          	add	a0,a0,t0
    1568:	00054503          	lbu	a0,0(a0)
    156c:	400022b7          	lui	t0,0x40002
    1570:	00a2a023          	sw	a0,0(t0) # 40002000 <__rodata_end+0x4000056c>
    1574:	00058513          	mv	a0,a1
    1578:	00050513          	mv	a0,a0
    157c:	00050313          	mv	t1,a0
    1580:	00435513          	srli	a0,t1,0x4
    1584:	00f57513          	andi	a0,a0,15
    1588:	7ffff297          	auipc	t0,0x7ffff
    158c:	c5828293          	addi	t0,t0,-936 # 800001e0 <__data_start+0x1e0>
    1590:	00550533          	add	a0,a0,t0
    1594:	00054503          	lbu	a0,0(a0)
    1598:	400022b7          	lui	t0,0x40002
    159c:	00a2a023          	sw	a0,0(t0) # 40002000 <__rodata_end+0x4000056c>
    15a0:	00f37513          	andi	a0,t1,15
    15a4:	7ffff297          	auipc	t0,0x7ffff
    15a8:	c3c28293          	addi	t0,t0,-964 # 800001e0 <__data_start+0x1e0>
    15ac:	00550533          	add	a0,a0,t0
    15b0:	00054503          	lbu	a0,0(a0)
    15b4:	400022b7          	lui	t0,0x40002
    15b8:	00a2a023          	sw	a0,0(t0) # 40002000 <__rodata_end+0x4000056c>
    15bc:	7ffff297          	auipc	t0,0x7ffff
    15c0:	c2428293          	addi	t0,t0,-988 # 800001e0 <__data_start+0x1e0>
    15c4:	0002a083          	lw	ra,0(t0)
    15c8:	0042a503          	lw	a0,4(t0)
    15cc:	0082a583          	lw	a1,8(t0)
    15d0:	7ffff517          	auipc	a0,0x7ffff
    15d4:	c3050513          	addi	a0,a0,-976 # 80000200 <__data_start+0x200>
    15d8:	00050293          	mv	t0,a0
    15dc:	40002337          	lui	t1,0x40002
    15e0:	0002c503          	lbu	a0,0(t0)
    15e4:	00128293          	addi	t0,t0,1
    15e8:	00050663          	beqz	a0,15f4 <trap_vector+0x54c>
    15ec:	00a32023          	sw	a0,0(t1) # 40002000 <__rodata_end+0x4000056c>
    15f0:	ff1ff06f          	j	15e0 <trap_vector+0x538>
    15f4:	00000393          	li	t2,0
    15f8:	08000e13          	li	t3,128

000015fc <trap_dump_registers>:
    15fc:	0023d513          	srli	a0,t2,0x2
    1600:	7ffff297          	auipc	t0,0x7ffff
    1604:	c1028293          	addi	t0,t0,-1008 # 80000210 <__data_start+0x210>
    1608:	0012a023          	sw	ra,0(t0)
    160c:	00a2a223          	sw	a0,4(t0)
    1610:	00b2a423          	sw	a1,8(t0)
    1614:	00050513          	mv	a0,a0
    1618:	00050593          	mv	a1,a0
    161c:	01855513          	srli	a0,a0,0x18
    1620:	00050513          	mv	a0,a0
    1624:	00050313          	mv	t1,a0
    1628:	00435513          	srli	a0,t1,0x4
    162c:	00f57513          	andi	a0,a0,15
    1630:	7ffff297          	auipc	t0,0x7ffff
    1634:	bf028293          	addi	t0,t0,-1040 # 80000220 <__data_start+0x220>
    1638:	00550533          	add	a0,a0,t0
    163c:	00054503          	lbu	a0,0(a0)
    1640:	400022b7          	lui	t0,0x40002
    1644:	00a2a023          	sw	a0,0(t0) # 40002000 <__rodata_end+0x4000056c>
    1648:	00f37513          	andi	a0,t1,15
    164c:	7ffff297          	auipc	t0,0x7ffff
    1650:	bd428293          	addi	t0,t0,-1068 # 80000220 <__data_start+0x220>
    1654:	00550533          	add	a0,a0,t0
    1658:	00054503          	lbu	a0,0(a0)
    165c:	400022b7          	lui	t0,0x40002
    1660:	00a2a023          	sw	a0,0(t0) # 40002000 <__rodata_end+0x4000056c>
    1664:	00058513          	mv	a0,a1
    1668:	01055513          	srli	a0,a0,0x10
    166c:	00050513          	mv	a0,a0
    1670:	00050313          	mv	t1,a0
    1674:	00435513          	srli	a0,t1,0x4
    1678:	00f57513          	andi	a0,a0,15
    167c:	7ffff297          	auipc	t0,0x7ffff
    1680:	bc428293          	addi	t0,t0,-1084 # 80000240 <__data_start+0x240>
    1684:	00550533          	add	a0,a0,t0
    1688:	00054503          	lbu	a0,0(a0)
    168c:	400022b7          	lui	t0,0x40002
    1690:	00a2a023          	sw	a0,0(t0) # 40002000 <__rodata_end+0x4000056c>
    1694:	00f37513          	andi	a0,t1,15
    1698:	7ffff297          	auipc	t0,0x7ffff
    169c:	ba828293          	addi	t0,t0,-1112 # 80000240 <__data_start+0x240>
    16a0:	00550533          	add	a0,a0,t0
    16a4:	00054503          	lbu	a0,0(a0)
    16a8:	400022b7          	lui	t0,0x40002
    16ac:	00a2a023          	sw	a0,0(t0) # 40002000 <__rodata_end+0x4000056c>
    16b0:	00058513          	mv	a0,a1
    16b4:	00855513          	srli	a0,a0,0x8
    16b8:	00050513          	mv	a0,a0
    16bc:	00050313          	mv	t1,a0
    16c0:	00435513          	srli	a0,t1,0x4
    16c4:	00f57513          	andi	a0,a0,15
    16c8:	7ffff297          	auipc	t0,0x7ffff
    16cc:	b9828293          	addi	t0,t0,-1128 # 80000260 <__data_start+0x260>
    16d0:	00550533          	add	a0,a0,t0
    16d4:	00054503          	lbu	a0,0(a0)
    16d8:	400022b7          	lui	t0,0x40002
    16dc:	00a2a023          	sw	a0,0(t0) # 40002000 <__rodata_end+0x4000056c>
    16e0:	00f37513          	andi	a0,t1,15
    16e4:	7ffff297          	auipc	t0,0x7ffff
    16e8:	b7c28293          	addi	t0,t0,-1156 # 80000260 <__data_start+0x260>
    16ec:	00550533          	add	a0,a0,t0
    16f0:	00054503          	lbu	a0,0(a0)
    16f4:	400022b7          	lui	t0,0x40002
    16f8:	00a2a023          	sw	a0,0(t0) # 40002000 <__rodata_end+0x4000056c>
    16fc:	00058513          	mv	a0,a1
    1700:	00050513          	mv	a0,a0
    1704:	00050313          	mv	t1,a0
    1708:	00435513          	srli	a0,t1,0x4
    170c:	00f57513          	andi	a0,a0,15
    1710:	7ffff297          	auipc	t0,0x7ffff
    1714:	b7028293          	addi	t0,t0,-1168 # 80000280 <__data_start+0x280>
    1718:	00550533          	add	a0,a0,t0
    171c:	00054503          	lbu	a0,0(a0)
    1720:	400022b7          	lui	t0,0x40002
    1724:	00a2a023          	sw	a0,0(t0) # 40002000 <__rodata_end+0x4000056c>
    1728:	00f37513          	andi	a0,t1,15
    172c:	7ffff297          	auipc	t0,0x7ffff
    1730:	b5428293          	addi	t0,t0,-1196 # 80000280 <__data_start+0x280>
    1734:	00550533          	add	a0,a0,t0
    1738:	00054503          	lbu	a0,0(a0)
    173c:	400022b7          	lui	t0,0x40002
    1740:	00a2a023          	sw	a0,0(t0) # 40002000 <__rodata_end+0x4000056c>
    1744:	7ffff297          	auipc	t0,0x7ffff
    1748:	b3c28293          	addi	t0,t0,-1220 # 80000280 <__data_start+0x280>
    174c:	0002a083          	lw	ra,0(t0)
    1750:	0042a503          	lw	a0,4(t0)
    1754:	0082a583          	lw	a1,8(t0)
    1758:	7ffff517          	auipc	a0,0x7ffff
    175c:	b4850513          	addi	a0,a0,-1208 # 800002a0 <__data_start+0x2a0>
    1760:	00050293          	mv	t0,a0
    1764:	40002337          	lui	t1,0x40002
    1768:	0002c503          	lbu	a0,0(t0)
    176c:	00128293          	addi	t0,t0,1
    1770:	00050663          	beqz	a0,177c <trap_dump_registers+0x180>
    1774:	00a32023          	sw	a0,0(t1) # 40002000 <__rodata_end+0x4000056c>
    1778:	ff1ff06f          	j	1768 <trap_dump_registers+0x16c>
    177c:	00238533          	add	a0,t2,sp
    1780:	00052503          	lw	a0,0(a0)
    1784:	7ffff297          	auipc	t0,0x7ffff
    1788:	b2c28293          	addi	t0,t0,-1236 # 800002b0 <__data_start+0x2b0>
    178c:	0012a023          	sw	ra,0(t0)
    1790:	00a2a223          	sw	a0,4(t0)
    1794:	00b2a423          	sw	a1,8(t0)
    1798:	00050513          	mv	a0,a0
    179c:	00050593          	mv	a1,a0
    17a0:	01855513          	srli	a0,a0,0x18
    17a4:	00050513          	mv	a0,a0
    17a8:	00050313          	mv	t1,a0
    17ac:	00435513          	srli	a0,t1,0x4
    17b0:	00f57513          	andi	a0,a0,15
    17b4:	7ffff297          	auipc	t0,0x7ffff
    17b8:	b0c28293          	addi	t0,t0,-1268 # 800002c0 <__data_start+0x2c0>
    17bc:	00550533          	add	a0,a0,t0
    17c0:	00054503          	lbu	a0,0(a0)
    17c4:	400022b7          	lui	t0,0x40002
    17c8:	00a2a023          	sw	a0,0(t0) # 40002000 <__rodata_end+0x4000056c>
    17cc:	00f37513          	andi	a0,t1,15
    17d0:	7ffff297          	auipc	t0,0x7ffff
    17d4:	af028293          	addi	t0,t0,-1296 # 800002c0 <__data_start+0x2c0>
    17d8:	00550533          	add	a0,a0,t0
    17dc:	00054503          	lbu	a0,0(a0)
    17e0:	400022b7          	lui	t0,0x40002
    17e4:	00a2a023          	sw	a0,0(t0) # 40002000 <__rodata_end+0x4000056c>
    17e8:	00058513          	mv	a0,a1
    17ec:	01055513          	srli	a0,a0,0x10
    17f0:	00050513          	mv	a0,a0
    17f4:	00050313          	mv	t1,a0
    17f8:	00435513          	srli	a0,t1,0x4
    17fc:	00f57513          	andi	a0,a0,15
    1800:	7ffff297          	auipc	t0,0x7ffff
    1804:	ae028293          	addi	t0,t0,-1312 # 800002e0 <__data_start+0x2e0>
    1808:	00550533          	add	a0,a0,t0
    180c:	00054503          	lbu	a0,0(a0)
    1810:	400022b7          	lui	t0,0x40002
    1814:	00a2a023          	sw	a0,0(t0) # 40002000 <__rodata_end+0x4000056c>
    1818:	00f37513          	andi	a0,t1,15
    181c:	7ffff297          	auipc	t0,0x7ffff
    1820:	ac428293          	addi	t0,t0,-1340 # 800002e0 <__data_start+0x2e0>
    1824:	00550533          	add	a0,a0,t0
    1828:	00054503          	lbu	a0,0(a0)
    182c:	400022b7          	lui	t0,0x40002
    1830:	00a2a023          	sw	a0,0(t0) # 40002000 <__rodata_end+0x4000056c>
    1834:	00058513          	mv	a0,a1
    1838:	00855513          	srli	a0,a0,0x8
    183c:	00050513          	mv	a0,a0
    1840:	00050313          	mv	t1,a0
    1844:	00435513          	srli	a0,t1,0x4
    1848:	00f57513          	andi	a0,a0,15
    184c:	7ffff297          	auipc	t0,0x7ffff
    1850:	ab428293          	addi	t0,t0,-1356 # 80000300 <__data_start+0x300>
    1854:	00550533          	add	a0,a0,t0
    1858:	00054503          	lbu	a0,0(a0)
    185c:	400022b7          	lui	t0,0x40002
    1860:	00a2a023          	sw	a0,0(t0) # 40002000 <__rodata_end+0x4000056c>
    1864:	00f37513          	andi	a0,t1,15
    1868:	7ffff297          	auipc	t0,0x7ffff
    186c:	a9828293          	addi	t0,t0,-1384 # 80000300 <__data_start+0x300>
    1870:	00550533          	add	a0,a0,t0
    1874:	00054503          	lbu	a0,0(a0)
    1878:	400022b7          	lui	t0,0x40002
    187c:	00a2a023          	sw	a0,0(t0) # 40002000 <__rodata_end+0x4000056c>
    1880:	00058513          	mv	a0,a1
    1884:	00050513          	mv	a0,a0
    1888:	00050313          	mv	t1,a0
    188c:	00435513          	srli	a0,t1,0x4
    1890:	00f57513          	andi	a0,a0,15
    1894:	7ffff297          	auipc	t0,0x7ffff
    1898:	a8c28293          	addi	t0,t0,-1396 # 80000320 <__data_start+0x320>
    189c:	00550533          	add	a0,a0,t0
    18a0:	00054503          	lbu	a0,0(a0)
    18a4:	400022b7          	lui	t0,0x40002
    18a8:	00a2a023          	sw	a0,0(t0) # 40002000 <__rodata_end+0x4000056c>
    18ac:	00f37513          	andi	a0,t1,15
    18b0:	7ffff297          	auipc	t0,0x7ffff
    18b4:	a7028293          	addi	t0,t0,-1424 # 80000320 <__data_start+0x320>
    18b8:	00550533          	add	a0,a0,t0
    18bc:	00054503          	lbu	a0,0(a0)
    18c0:	400022b7          	lui	t0,0x40002
    18c4:	00a2a023          	sw	a0,0(t0) # 40002000 <__rodata_end+0x4000056c>
    18c8:	7ffff297          	auipc	t0,0x7ffff
    18cc:	a5828293          	addi	t0,t0,-1448 # 80000320 <__data_start+0x320>
    18d0:	0002a083          	lw	ra,0(t0)
    18d4:	0042a503          	lw	a0,4(t0)
    18d8:	0082a583          	lw	a1,8(t0)
    18dc:	7ffff517          	auipc	a0,0x7ffff
    18e0:	a6450513          	addi	a0,a0,-1436 # 80000340 <__data_start+0x340>
    18e4:	00050293          	mv	t0,a0
    18e8:	40002337          	lui	t1,0x40002
    18ec:	0002c503          	lbu	a0,0(t0)
    18f0:	00128293          	addi	t0,t0,1
    18f4:	00050663          	beqz	a0,1900 <trap_dump_registers+0x304>
    18f8:	00a32023          	sw	a0,0(t1) # 40002000 <__rodata_end+0x4000056c>
    18fc:	ff1ff06f          	j	18ec <trap_dump_registers+0x2f0>
    1900:	00438393          	addi	t2,t2,4
    1904:	cfc39ce3          	bne	t2,t3,15fc <trap_dump_registers>
    1908:	7ffff517          	auipc	a0,0x7ffff
    190c:	a4850513          	addi	a0,a0,-1464 # 80000350 <__data_start+0x350>
    1910:	00050293          	mv	t0,a0
    1914:	40002337          	lui	t1,0x40002
    1918:	0002c503          	lbu	a0,0(t0)
    191c:	00128293          	addi	t0,t0,1
    1920:	00050663          	beqz	a0,192c <abort>
    1924:	00a32023          	sw	a0,0(t1) # 40002000 <__rodata_end+0x4000056c>
    1928:	ff1ff06f          	j	1918 <trap_dump_registers+0x31c>

0000192c <abort>:
    192c:	ed8ff06f          	j	1004 <_end>
    1930:	00012003          	lw	zero,0(sp)
    1934:	00412083          	lw	ra,4(sp)
    1938:	00812103          	lw	sp,8(sp)
    193c:	00c12183          	lw	gp,12(sp)
    1940:	01012203          	lw	tp,16(sp)
    1944:	01412283          	lw	t0,20(sp)
    1948:	01812303          	lw	t1,24(sp)
    194c:	01c12383          	lw	t2,28(sp)
    1950:	02012403          	lw	s0,32(sp)
    1954:	02412483          	lw	s1,36(sp)
    1958:	02812503          	lw	a0,40(sp)
    195c:	02c12583          	lw	a1,44(sp)
    1960:	03012603          	lw	a2,48(sp)
    1964:	03412683          	lw	a3,52(sp)
    1968:	03812703          	lw	a4,56(sp)
    196c:	03c12783          	lw	a5,60(sp)
    1970:	04012803          	lw	a6,64(sp)
    1974:	04412883          	lw	a7,68(sp)
    1978:	04812903          	lw	s2,72(sp)
    197c:	04c12983          	lw	s3,76(sp)
    1980:	05012a03          	lw	s4,80(sp)
    1984:	05412a83          	lw	s5,84(sp)
    1988:	05812b03          	lw	s6,88(sp)
    198c:	05c12b83          	lw	s7,92(sp)
    1990:	06012c03          	lw	s8,96(sp)
    1994:	06412c83          	lw	s9,100(sp)
    1998:	06812d03          	lw	s10,104(sp)
    199c:	06c12d83          	lw	s11,108(sp)
    19a0:	07012e03          	lw	t3,112(sp)
    19a4:	07412e83          	lw	t4,116(sp)
    19a8:	07812f03          	lw	t5,120(sp)
    19ac:	07c12f83          	lw	t6,124(sp)
    19b0:	08010113          	addi	sp,sp,128
    19b4:	30200073          	mret
    19b8:	0000                	unimp
	...

000019bc <_load>:
    19bc:	800006b7          	lui	a3,0x80000
    19c0:	800007b7          	lui	a5,0x80000
    19c4:	80000737          	lui	a4,0x80000
    19c8:	800005b7          	lui	a1,0x80000
    19cc:	37468693          	addi	a3,a3,884 # 80000374 <stack_top+0xfffe0374>
    19d0:	00078793          	mv	a5,a5
    19d4:	37470713          	addi	a4,a4,884 # 80000374 <stack_top+0xfffe0374>
    19d8:	37458593          	addi	a1,a1,884 # 80000374 <stack_top+0xfffe0374>
    19dc:	40f68533          	sub	a0,a3,a5
    19e0:	40e585b3          	sub	a1,a1,a4
    19e4:	02f68863          	beq	a3,a5,1a14 <_load+0x58>
    19e8:	000027b7          	lui	a5,0x2
    19ec:	a9478693          	addi	a3,a5,-1388 # 1a94 <__rodata_end>
    19f0:	80000837          	lui	a6,0x80000
    19f4:	a9478793          	addi	a5,a5,-1388
    19f8:	00d50533          	add	a0,a0,a3
    19fc:	40f80833          	sub	a6,a6,a5
    1a00:	0007c603          	lbu	a2,0(a5)
    1a04:	00f806b3          	add	a3,a6,a5
    1a08:	00178793          	addi	a5,a5,1
    1a0c:	00c68023          	sb	a2,0(a3)
    1a10:	fea798e3          	bne	a5,a0,1a00 <_load+0x44>
    1a14:	00058c63          	beqz	a1,1a2c <_load+0x70>
    1a18:	ffc5f793          	andi	a5,a1,-4
    1a1c:	00e787b3          	add	a5,a5,a4
    1a20:	00072023          	sw	zero,0(a4)
    1a24:	00470713          	addi	a4,a4,4
    1a28:	fef71ce3          	bne	a4,a5,1a20 <_load+0x64>
    1a2c:	00008067          	ret

00001a30 <Fibonacci>:
    1a30:	00050613          	mv	a2,a0
    1a34:	02a05663          	blez	a0,1a60 <Fibonacci+0x30>
    1a38:	00100693          	li	a3,1
    1a3c:	00100713          	li	a4,1
    1a40:	00000793          	li	a5,0
    1a44:	0080006f          	j	1a4c <Fibonacci+0x1c>
    1a48:	00050713          	mv	a4,a0
    1a4c:	00178793          	addi	a5,a5,1
    1a50:	00d70533          	add	a0,a4,a3
    1a54:	00070693          	mv	a3,a4
    1a58:	fef618e3          	bne	a2,a5,1a48 <Fibonacci+0x18>
    1a5c:	00008067          	ret
    1a60:	00000513          	li	a0,0
    1a64:	00008067          	ret

Disassembly of section .text.startup:

00001a68 <main>:
    1a68:	3e800793          	li	a5,1000
    1a6c:	00100693          	li	a3,1
    1a70:	00100713          	li	a4,1
    1a74:	0080006f          	j	1a7c <main+0x14>
    1a78:	00050713          	mv	a4,a0
    1a7c:	fff78793          	addi	a5,a5,-1
    1a80:	00d70533          	add	a0,a4,a3
    1a84:	00070693          	mv	a3,a4
    1a88:	fe0798e3          	bnez	a5,1a78 <main+0x10>
    1a8c:	00150513          	addi	a0,a0,1
    1a90:	00008067          	ret
